(lp0
(lp1
I1970
aI1971
aI1972
aI1973
aI1974
aI1975
aI1976
aI1977
aI1978
aI1979
aI1980
aI1981
aI1982
aI1983
aI1984
aI1985
aI1986
aI1987
aI1988
aI1989
aI1990
aI1991
aI1992
aI1993
aI1994
aI1995
aI1996
aI1997
aI1998
aI1999
aI2000
aI2001
aI2002
aI2003
aI2004
aI2005
aI2006
aI2007
aI2008
aI2009
aI2010
aI2011
aI2012
aI2013
aI2014
aa(lp2
I65
aI8
aI25
aI20
aI10
aI19
aI17
aI17
aI13
aI9
aI10
aI18
aI52
aI57
aI59
aI68
aI148
aI138
aI169
aI191
aI371
aI416
aI337
aI273
aI180
aI244
aI211
aI263
aI522
aI553
aI619
aI700
aI602
aI320
aI190
aI188
aI165
aI173
aI349
aI817
aI549
aI236
aI223
aI237
aI8
aa.