(lp0
(L51106L
cdecimal
Decimal
p1
(S'45548000000.00'
p2
tp3
Rp4
tp5
a(L78080L
g1
(S'45399640000.00'
p6
tp7
Rp8
tp9
a(L40216L
g1
(S'40848000000.00'
p10
tp11
Rp12
tp13
a(L33364L
g1
(S'36470000000.00'
p14
tp15
Rp16
tp17
a(L98665L
g1
(S'34056190000.00'
p18
tp19
Rp20
tp21
a(L90976L
g1
(S'34000000000.00'
p22
tp23
Rp24
tp25
a(L78086L
g1
(S'32355690000.00'
p26
tp27
Rp28
tp29
a(L4062L
g1
(S'30809000000.00'
p30
tp31
Rp32
tp33
a(L40324L
g1
(S'24050150000.00'
p34
tp35
Rp36
tp37
a(L54608L
g1
(S'13927220000.00'
p38
tp39
Rp40
tp41
a(L58119L
g1
(S'13013440000.00'
p42
tp43
Rp44
tp45
a(L82442L
g1
(S'12290000000.00'
p46
tp47
Rp48
tp49
a(L78443L
g1
(S'11922000000.00'
p50
tp51
Rp52
tp53
a(L2058L
g1
(S'10822000000.00'
p54
tp55
Rp56
tp57
a(L71436L
g1
(S'10792000000.00'
p58
tp59
Rp60
tp61
a(L72954L
g1
(S'8037000000.00'
p62
tp63
Rp64
tp65
a(L99314L
g1
(S'7662819018.66'
p66
tp67
Rp68
tp69
a(L3020L
g1
(S'7015000000.00'
p70
tp71
Rp72
tp73
a(L96242L
g1
(S'6274149000.00'
p74
tp75
Rp76
tp77
a(L96255L
g1
(S'6274149000.00'
p78
tp79
Rp80
tp81
a(L96256L
g1
(S'6274149000.00'
p82
tp83
Rp84
tp85
a(L96257L
g1
(S'6274149000.00'
p86
tp87
Rp88
tp89
a(L101817L
g1
(S'5683000000.00'
p90
tp91
Rp92
tp93
a(L101818L
g1
(S'5659000000.00'
p94
tp95
Rp96
tp97
a(L101819L
g1
(S'5659000000.00'
p98
tp99
Rp100
tp101
a.