(lp0
(lp1
F-5.60748
aF-5.54411
aF1.27983
aF0.95172
aF5.87027
aF5.61798
aF2.85461
aF8.00233
aF24.7012
aF-13.34868
aF15.1703
aF-6.85714
aF-10.85791
aF-4.94393
aF-15.05188
aF6.83611
aF30.19242
aF-7.22082
aF-0.4921
aF-3.11933
aF-8.25099
aF-2.87908
aF1.38989
aF-6.57075
aF-6.54814
aF-4.47753
aF3.07627
aF-2.20015
aF-9.98118
aF3.40974
aF-5.27544
aF10.74442
aF-2.24415
aF0.42438
aF-9.92634
aa(lp2
F-1.89681
aF2.99973
aF5.65491
aF-3.99327
aF12.10507
aF-1.17675
aF8.16427
aF23.47619
aF21.21804
aF-19.07371
aF14.95602
aF4.44698
aF-14.35547
aF-7.95908
aF-8.90101
aF10.60675
aF24.58969
aF-3.28347
aF1.03207
aF-8.6941
aF-9.19927
aF-12.49048
aF8.15659
aF-12.61375
aF-9.15273
aF0.4527
aF-5.53365
aF-5.22051
aF-10.25153
aF8.38024
aF-7.94067
aF7.88238
aF-0.37106
aF-0.29035
aF-7.82316
aa(lp3
F2.77472
aF-0.09769
aF1.42814
aF5.52897
aF7.36528
aF5.74048
aF0.52524
aF16.60664
aF22.91909
aF-13.69238
aF17.41061
aF6.00464
aF-18.87503
aF-3.69427
aF-7.4214
aF7.95503
aF21.12262
aF-0.16691
aF-4.99504
aF-2.07872
aF-7.00211
aF-7.11659
aF5.99975
aF-7.65914
aF-15.62447
aF-1.26869
aF5.05252
aF1.7715
aF-9.43027
aF7.16033
aF-7.79126
aF10.07928
aF-3.843
aF-1.64739
aF-5.64979
aa(lp4
F-7.39664
aF-0.9434
aF6.276
aF4.51259
aF8.2652
aF4.99783
aF-17.19067
aF27.21652
aF29.53368
aF-23.39776
aF19.27832
aF-2.24719
aF-18.85648
aF-2.03251
aF-5.60081
aF13.67447
aF29.37807
aF-8.43043
aF6.82835
aF-8.84593
aF-10.39427
aF-3.65962
aF3.06069
aF-11.76778
aF-16.31207
aF1.99088
aF2.59327
aF-0.73333
aF-14.45835
aF6.01719
aF-10.21683
aF5.71388
aF-4.41558
aF-5.94647
aF-8.11627
aa(lp5
F-8.50547
aF-4.84595
aF5.62691
aF-5.57896
aF0.57589
aF2.52543
aF1.40285
aF3.76902
aF9.45789
aF-12.56975
aF6.81093
aF-1.81131
aF-6.96366
aF-1.38322
aF-4.5032
aF-1.02294
aF7.24178
aF-4.92075
aF-4.96342
aF-0.7168
aF-0.43809
aF-3.2191
aF-0.34171
aF-6.5329
aF-4.92355
aF-2.00013
aF-8.06404
aF-1.43118
aF-2.87084
aF-0.2416
aF-4.574
aF3.03496
aF-3.99144
aF-4.03244
aF-8.60319
aa(lp6
F-2.69688
aF-3.8798
aF0.84306
aF-5.32619
aF1.32289
aF3.00459
aF1.23708
aF10.38981
aF2.62755
aF-9.30881
aF3.41944
aF0.59743
aF-6.0731
aF-0.45599
aF1.10518
aF6.0903
aF10.78035
aF-3.90214
aF0.18272
aF-3.10078
aF-2.64151
aF-1.76205
aF-2.71473
aF-3.65121
aF-5.7966
aF1.22845
aF-0.62503
aF-2.02724
aF1.95246
aF3.31357
aF-4.48336
aF0.01962
aF-7.49211
aF-5.99713
aF-5.91122
aa(lp7
F-3.7572
aF-2.92662
aF0.94737
aF2.18899
aF-4.6871
aF7.16855
aF7.48066
aF6.13121
aF11.31005
aF-29.17436
aF17.97628
aF-3.47847
aF-2.06593
aF-8.76252
aF-3.09497
aF7.05309
aF-4.97758
aF0.57708
aF-4.96395
aF-0.15782
aF-1.08245
aF-8.65615
aF-2.31576
aF-4.67806
aF-13.37272
aF-1.44734
aF-5.97932
aF-3.04615
aF-4.39652
aF8.70158
aF-9.75127
aF9.83571
aF-3.80607
aF-10.82694
aF0.74057
aa(lp8
F-11.10162
aF-7.72988
aF8.64342
aF-10.17793
aF9.32218
aF0.8609
aF7.76787
aF35.82901
aF16.93152
aF-13.98565
aF5.42261
aF3.75066
aF-11.31413
aF-8.66496
aF-6.69762
aF12.53693
aF20.59477
aF-0.5253
aF19.21556
aF-13.94269
aF-10.61791
aF-14.03814
aF3.58033
aF-0.36126
aF-14.26636
aF12.59447
aF16.89673
aF-15.06568
aF-0.5829
aF10.41716
aF-6.75706
aF-5.52626
aF-5.36181
aF-5.04967
aF0.75063
aa(lp9
F-4.55211
aF-6.68804
aF6.5847
aF-2.90129
aF-0.67922
aF0.29879
aF8.36742
aF17.35208
aF7.14895
aF-13.54244
aF10.21814
aF1.03751
aF-12.43885
aF-6.00946
aF-3.88573
aF4.70763
aF31.11262
aF-4.08837
aF0.31069
aF-10.85644
aF0.0
aF-4.45223
aF9.93279
aF-2.26889
aF-7.86109
aF3.93196
aF-6.26324
aF-2.36677
aF-12.15125
aF-5.55936
aF-7.52184
aF5.68985
aF-3.97538
aF-4.1897
aF-7.90547
aa(lp10
F15.77068
aF14.33563
aF-4.68441
aF-7.95706
aF4.03804
aF3.64549
aF0.48434
aF14.9406
aF26.53081
aF-20.59233
aF-1.35402
aF3.85314
aF-12.38238
aF-8.86332
aF2.92308
aF3.64962
aF16.85223
aF-4.31166
aF-0.21856
aF-0.40733
aF-7.09582
aF-2.84257
aF-7.19864
aF-16.21369
aF-6.22139
aF3.71903
aF10.28937
aF1.0539
aF8.01624
aF21.64721
aF-3.06363
aF3.16485
aF-16.57875
aF-6.78012
aF4.01902
aa(lp11
F-7.59161
aF-3.79965
aF0.43172
aF-2.57638
aF-0.38733
aF-1.30245
aF3.41052
aF6.51146
aF25.38687
aF-10.30667
aF5.76275
aF4.95524
aF-7.55722
aF-9.98084
aF-4.95042
aF-1.17919
aF17.94374
aF-3.78412
aF-2.27234
aF-2.08688
aF-5.95164
aF-2.13892
aF-3.23935
aF5.02784
aF-8.30293
aF-3.05778
aF-6.3391
aF-2.52648
aF-0.09689
aF13.81414
aF-6.8589
aF5.89255
aF-8.68447
aF-6.14556
aF-2.08925
aa(lp12
F-5.20776
aF-5.52078
aF5.01377
aF-1.52922
aF1.57079
aF9.48328
aF10.18084
aF20.6228
aF4.51159
aF-8.22476
aF2.5227
aF6.2167
aF-3.34764
aF-16.15574
aF-3.40988
aF0.51411
aF14.58712
aF-3.63496
aF2.3753
aF-6.45423
aF5.51427
aF-5.8542
aF3.58347
aF-8.77437
aF-13.12765
aF1.5557
aF-8.19672
aF4.16902
aF-14.6245
aF-6.45313
aF-3.89316
aF5.3891
aF-1.2299
aF-6.66667
aF-7.78467
aa(lp13
F11.52069
aF-4.5252
aF-1.62157
aF-9.56878
aF3.17321
aF2.87814
aF-11.79118
aF-8.74348
aF12.43831
aF-6.46531
aF-5.74686
aF14.499
aF-9.27728
aF1.20338
aF0.00985
aF0.8079
aF7.90922
aF-3.198
aF1.48832
aF-7.51638
aF-6.75297
aF1.80091
aF-0.36208
aF2.16704
aF2.19586
aF11.15816
aF2.02689
aF22.23534
aF13.66712
aF17.45575
aF-2.72217
aF-4.32701
aF6.73049
aF4.21448
aF9.41189
aa(lp14
F18.32435
aF-7.22414
aF-2.73684
aF-6.05513
aF15.00872
aF-1.46506
aF15.40119
aF-1.34012
aF12.69821
aF-21.71414
aF20.38388
aF-5.95508
aF-9.0478
aF-5.69339
aF11.85285
aF-4.45817
aF14.55103
aF-7.85264
aF-7.16232
aF3.9853
aF-16.2008
aF10.0666
aF7.0084
aF-3.47463
aF-12.81085
aF-5.66758
aF-9.48628
aF1.57774
aF0.3904
aF-1.66166
aF-15.69056
aF4.34734
aF-12.54473
aF3.05924
aF1.39496
aa(lp15
F4.2747
aF-1.17245
aF3.51537
aF1.65471
aF3.50293
aF-1.42314
aF0.53433
aF8.2622
aF9.62896
aF-10.94441
aF10.54236
aF2.70452
aF1.73688
aF-17.65337
aF0.42714
aF8.40542
aF3.20301
aF-3.93121
aF2.83966
aF-5.08197
aF-3.93369
aF1.9099
aF1.19414
aF9.58852
aF-12.39627
aF-3.57423
aF-2.41949
aF0.38301
aF-10.40777
aF-10.21403
aF2.02986
aF4.15131
aF-3.50223
aF-1.01289
aF-9.44478
aa(lp16
F-1.11213
aF-6.31373
aF3.77206
aF2.47744
aF-0.26765
aF-3.25555
aF1.14355
aF4.61977
aF-0.26213
aF-8.94672
aF7.89501
aF0.97055
aF5.30224
aF-16.94741
aF0.39296
aF3.07641
aF8.63797
aF-9.94999
aF3.6275
aF-4.02593
aF2.46608
aF1.83969
aF-0.8116
aF7.00835
aF-10.76757
aF-10.52536
aF-5.05918
aF-0.06949
aF-4.84402
aF-3.68473
aF-2.57057
aF1.40037
aF-0.92052
aF-5.86831
aF-42.78118
aa(lp17
F-2.33275
aF-8.3837
aF-4.31884
aF-7.27929
aF1.61884
aF3.12316
aF5.20313
aF15.44506
aF12.89831
aF-10.05585
aF-2.36612
aF2.90428
aF-7.55414
aF-6.12617
aF-2.49419
aF4.13901
aF6.59046
aF-2.69993
aF-1.69422
aF-4.46124
aF-12.25013
aF9.11539
aF-12.44648
aF-4.95339
aF-9.9925
aF-3.02445
aF2.36971
aF-4.33551
aF-2.17189
aF1.59677
aF-8.30475
aF-7.34106
aF6.45942
aF-17.11135
aF-1.95277
aa(lp18
F-3.34518
aF-6.00225
aF0.84838
aF-1.68082
aF-0.47517
aF2.92276
aF-0.0513
aF3.50141
aF5.87586
aF-8.83758
aF-1.71389
aF-2.18093
aF-6.2334
aF-6.01704
aF-4.02633
aF1.96071
aF6.37133
aF-2.12816
aF-0.17023
aF-2.63652
aF-2.50861
aF2.10725
aF-2.74369
aF-1.37122
aF-2.81641
aF-0.89758
aF-9.4732
aF1.64855
aF-1.37074
aF3.10054
aF-6.07881
aF0.78097
aF-2.59736
aF-3.86871
aF-3.53147
aa(lp19
F-6.65045
aF-2.06351
aF3.74729
aF-2.36434
aF3.87181
aF6.15465
aF6.61738
aF21.49271
aF16.10772
aF-15.68123
aF6.09202
aF-7.5141
aF-7.30159
aF-2.07816
aF-2.32717
aF5.38646
aF14.73789
aF-8.30463
aF3.85783
aF-4.92852
aF-3.13988
aF-1.31928
aF-3.05056
aF-3.12949
aF-4.67654
aF-3.16261
aF-6.46389
aF-1.08021
aF-8.13408
aF0.7913
aF-7.43376
aF3.30818
aF-5.41282
aF-10.24841
aF-4.6594
aa(lp20
F-2.09345
aF-1.79055
aF0.71766
aF3.33007
aF1.50079
aF6.22729
aF6.29414
aF6.20793
aF13.54488
aF-9.5467
aF-6.90627
aF-0.58233
aF-1.53873
aF-6.25041
aF-6.13542
aF3.39745
aF9.59368
aF-8.03279
aF3.59091
aF-1.12305
aF-3.31737
aF-2.44943
aF0.32473
aF-1.51854
aF-8.81235
aF-0.36626
aF-5.09747
aF3.23631
aF-4.49216
aF3.41667
aF-2.74124
aF7.27117
aF-2.76401
aF-7.09201
aF-3.7907
aa(lp21
F-8.52031
aF-3.90212
aF-2.0291
aF-0.68214
aF-0.25954
aF4.11339
aF4.08537
aF7.72752
aF10.52065
aF-11.02402
aF-1.18471
aF-5.85993
aF-2.43284
aF-2.18445
aF-2.90184
aF1.15342
aF6.60741
aF-4.47977
aF-1.75847
aF-3.1113
aF-3.74002
aF-1.36184
aF-3.81142
aF-5.93123
aF-7.40454
aF-2.73175
aF-4.61588
aF-1.57508
aF-4.02501
aF0.15166
aF-6.88731
aF3.43447
aF-2.00696
aF-3.36675
aF-3.22721
aa(lp22
F-7.02466
aF-6.33028
aF4.74514
aF-2.97059
aF-0.0464
aF11.21629
aF6.65116
aF19.41463
aF6.6516
aF-12.36591
aF3.96759
aF4.23846
aF-2.8922
aF-13.71184
aF-5.42047
aF5.05588
aF9.55016
aF0.94118
aF6.78392
aF-6.64309
aF11.32075
aF-2.03952
aF-2.94498
aF-3.62879
aF-13.44502
aF1.46583
aF-7.80795
aF3.56605
aF-15.22461
aF-3.49938
aF-10.13688
aF5.28136
aF-1.94805
aF-3.96185
aF-5.32016
aa(lp23
F-2.74859
aF-7.48918
aF5.00782
aF2.39876
aF0.8107
aF5.42735
aF8.11996
aF21.20219
aF17.98839
aF-22.7407
aF-0.88889
aF0.79642
aF-10.98804
aF-7.89386
aF-7.12411
aF6.90064
aF14.17759
aF-3.76106
aF2.12381
aF-5.91695
aF-5.2421
aF2.75493
aF-2.4218
aF-4.21617
aF-4.25688
aF2.43426
aF-7.49309
aF-9.52078
aF-5.92768
aF6.10063
aF-0.80285
aF6.02767
aF-4.82759
aF-5.48148
aF-3.25797
aa(lp24
F0.37248
aF1.90986
aF1.71195
aF-4.63873
aF-3.02889
aF0.86414
aF-4.15079
aF-2.26936
aF-1.56978
aF-7.40295
aF-1.31504
aF-4.96299
aF-7.91629
aF-5.52831
aF-0.47314
aF-3.87939
aF-3.58715
aF-5.99336
aF-4.38092
aF-2.08057
aF-1.50879
aF-3.96374
aF-0.03946
aF1.08677
aF4.09724
aF0.97705
aF1.5751
aF0.50914
aF3.90035
aF16.1607
aF1.64305
aF9.24667
aF2.41064
aF3.09811
aF6.57571
aa(lp25
F-10.0445
aF-33.43856
aF-0.44743
aF-5.59662
aF4.96862
aF4.10628
aF-0.30102
aF18.4679
aF14.44073
aF-18.5588
aF6.24592
aF-1.99857
aF-11.3852
aF-5.74236
aF-2.00753
aF17.55162
aF9.22979
aF-7.88064
aF-5.63177
aF0.94429
aF-5.53221
aF-7.03125
aF2.9527
aF-5.77293
aF-15.72973
aF-2.1164
aF-10.78723
aF-3.74696
aF-6.6374
aF3.94112
aF-6.60754
aF0.61104
aF-12.25392
aF-5.28919
aF-11.32815
aa(lp26
F-4.41086
aF0.12736
aF1.51252
aF8.93164
aF2.42405
aF1.10478
aF0.63687
aF7.01654
aF8.20896
aF-6.77361
aF0.16816
aF-6.16836
aF-5.64875
aF-6.64245
aF-8.42434
aF1.70982
aF4.01531
aF-4.1567
aF-0.37784
aF-0.76848
aF-1.44802
aF2.34966
aF2.551
aF-3.42305
aF-1.90398
aF-0.79897
aF-5.21693
aF-2.88194
aF-6.47202
aF-1.74461
aF-5.12644
aF5.62381
aF-0.58083
aF-2.54695
aF-2.90903
aa(lp27
F-5.60748
aF-5.54411
aF1.27983
aF0.95172
aF5.87027
aF5.61798
aF2.85461
aF8.00233
aF24.7012
aF-13.34868
aF15.1703
aF-6.85714
aF-10.85791
aF-4.94393
aF-15.05188
aF6.83611
aF30.19242
aF-7.22082
aF-0.4921
aF-3.11933
aF-8.25099
aF-2.87908
aF1.38989
aF-6.57075
aF-6.54814
aF-4.47753
aF3.07627
aF-2.20015
aF-9.98118
aF3.40974
aF-5.27544
aF10.74442
aF-2.24415
aF0.42438
aF-9.92634
aa(lp28
F-2.84057
aF-4.26058
aF7.2018
aF8.43641
aF4.49867
aF7.20803
aF12.8708
aF18.83517
aF33.49673
aF-10.39553
aF25.53363
aF-2.15827
aF-24.98067
aF-12.17705
aF-17.02196
aF17.95845
aF10.32901
aF-10.1467
aF11.4423
aF-8.13586
aF-9.51302
aF-5.2603
aF-5.48379
aF-15.07321
aF2.56007
aF0.41005
aF-7.79967
aF-1.0753
aF-9.53175
aF6.22084
aF-11.61216
aF3.39915
aF2.31884
aF-0.50383
aF-11.69406
aa(lp29
F-1.89681
aF2.99973
aF5.65491
aF-3.99327
aF12.10507
aF-1.17675
aF8.16427
aF23.47619
aF21.21804
aF-19.07371
aF14.95602
aF4.44698
aF-14.35547
aF-7.95908
aF-8.90101
aF10.60675
aF24.58969
aF-3.28347
aF1.03207
aF-8.6941
aF-9.19927
aF-12.49048
aF8.15659
aF-12.61375
aF-9.15273
aF0.4527
aF-5.53365
aF-5.22051
aF-10.25153
aF8.38024
aF-7.94067
aF7.88238
aF-0.37106
aF-0.29035
aF-7.82316
aa(lp30
F0.75877
aF-3.96961
aF-0.77425
aF-5.76037
aF-8.88839
aF-3.79777
aF-1.12544
aF-2.66272
aF2.51983
aF-7.85938
aF-4.10844
aF-4.50227
aF0.88434
aF-14.12819
aF-1.38136
aF-4.04944
aF6.20999
aF-6.81873
aF-4.11235
aF0.63938
aF-4.49062
aF-3.22859
aF-8.71452
aF-0.41938
aF-4.00861
aF-0.13017
aF-6.59444
aF0.81918
aF-3.34726
aF-2.52257
aF3.91809
aF1.48492
aF-8.72842
aF-1.57184
aF-3.06823
aa(lp31
F-1.0604
aF-0.32388
aF-3.60082
aF-7.87926
aF-4.89591
aF-0.19342
aF4.11011
aF0.59943
aF10.71269
aF-9.42087
aF6.05256
aF1.84439
aF-6.12692
aF-5.40078
aF-8.73187
aF-3.90301
aF9.47392
aF-4.08864
aF1.92138
aF-0.54477
aF2.53254
aF2.91437
aF0.12522
aF-2.74878
aF-1.01772
aF-5.3442
aF-7.64853
aF-1.08827
aF-9.64206
aF1.27073
aF3.19955
aF2.58657
aF-4.78019
aF-7.02289
aF-4.662
aa(lp32
F-2.51416
aF-8.34306
aF-5.5748
aF-1.57243
aF7.47695
aF2.07619
aF6.14182
aF5.10623
aF11.67673
aF-6.56092
aF6.36252
aF-9.84814
aF-2.69238
aF-6.85573
aF-3.15245
aF0.41515
aF16.20101
aF-3.06116
aF0.07815
aF-8.71722
aF-2.4386
aF0.63837
aF-3.18233
aF-2.35489
aF-3.259
aF0.31694
aF2.96854
aF-0.16556
aF1.8047
aF1.88647
aF-6.41952
aF1.19961
aF-3.83118
aF-4.4715
aF0.99218
aa(lp33
F-5.2429
aF-2.57884
aF-4.4335
aF-8.76074
aF-1.50542
aF-4.74216
aF-0.62984
aF-8.04276
aF3.95699
aF-8.66259
aF-7.80629
aF0.46403
aF4.85137
aF-15.32233
aF-0.12841
aF-6.99119
aF11.31001
aF-5.48696
aF-1.47972
aF4.57974
aF-6.3303
aF-1.71515
aF-5.67856
aF-0.52923
aF-5.23149
aF1.22718
aF-4.30765
aF-1.25429
aF-2.99329
aF-0.73977
aF-5.21294
aF0.74742
aF-9.91409
aF-6.18044
aF-5.58811
aa(lp34
F-0.77447
aF-10.89474
aF-5.50852
aF2.2625
aF0.24345
aF1.46054
aF6.29773
aF1.2936
aF10.797
aF-6.89959
aF5.84594
aF-5.22465
aF-3.03884
aF-5.68063
aF-4.04498
aF0.49188
aF10.13934
aF-2.38457
aF-0.45831
aF-4.39059
aF-1.76583
aF2.41747
aF-2.50444
aF-1.48227
aF0.94565
aF1.0638
aF-1.17689
aF1.67277
aF1.1339
aF0.59724
aF-4.52602
aF-1.33482
aF-4.95666
aF-1.89708
aF0.33913
aa(lp35
F2.77472
aF-0.09769
aF1.42814
aF5.52897
aF7.36528
aF5.74048
aF0.52524
aF16.60664
aF22.91909
aF-13.69238
aF17.41061
aF6.00464
aF-18.87503
aF-3.69427
aF-7.4214
aF7.95503
aF21.12262
aF-0.16691
aF-4.99504
aF-2.07872
aF-7.00211
aF-7.11659
aF5.99975
aF-7.65914
aF-15.62447
aF-1.26869
aF5.05252
aF1.7715
aF-9.43027
aF7.16033
aF-7.79126
aF10.07928
aF-3.843
aF-1.64739
aF-5.64979
aa(lp36
F1.04222
aF-11.39518
aF0.74931
aF0.57339
aF-0.47285
aF1.46218
aF6.00775
aF1.38055
aF11.28296
aF-4.69874
aF4.11941
aF1.11443
aF-2.94232
aF-5.77674
aF-3.78301
aF1.0458
aF8.61731
aF-4.94895
aF-0.77816
aF-1.95874
aF-6.00047
aF0.78255
aF-2.83555
aF-3.6973
aF-1.68781
aF-0.95895
aF1.38741
aF1.09299
aF1.05772
aF5.93838
aF-5.05319
aF1.20417
aF-3.16044
aF-5.71812
aF-1.71554
aa(lp37
F-0.11111
aF-2.63253
aF4.53116
aF2.27847
aF0.8777
aF0.3528
aF-2.02661
aF12.51738
aF-1.40187
aF-7.62986
aF-1.03538
aF-4.17745
aF-4.146
aF-4.14044
aF-7.19697
aF-1.52316
aF4.32108
aF-3.26493
aF-3.88888
aF0.09485
aF-2.59475
aF4.12263
aF2.92451
aF1.00188
aF-2.91745
aF-2.29623
aF0.114
aF1.95312
aF-4.33986
aF-3.01521
aF-3.13505
aF3.87638
aF-1.23018
aF-1.69946
aF-4.44544
aa(lp38
F-8.29621
aF-9.42117
aF9.9723
aF-10.03012
aF3.51967
aF5.80504
aF9.98416
aF15.74994
aF24.56333
aF-7.22171
aF1.20289
aF3.98859
aF-11.91038
aF-3.13614
aF0.07133
aF12.47352
aF8.69947
aF-2.8181
aF11.28907
aF-4.93274
aF-8.40793
aF-18.90812
aF-4.38134
aF-0.1906
aF-9.384
aF9.82255
aF2.44241
aF-13.49073
aF1.48317
aF3.42183
aF-14.05463
aF1.9171
aF-5.94542
aF6.00555
aF1.89474
aa(lp39
F2.0345
aF-9.36189
aF-3.11229
aF-6.15132
aF1.30204
aF0.05694
aF7.49314
aF7.20367
aF9.22747
aF-13.35759
aF-0.06201
aF2.84864
aF-10.41706
aF-1.03081
aF-6.00789
aF3.1468
aF4.32942
aF-0.21121
aF-1.7512
aF-1.4187
aF-2.86491
aF7.02173
aF-4.15045
aF-3.45259
aF-6.02064
aF-3.09808
aF-0.88496
aF1.62323
aF-1.42349
aF-2.33807
aF-6.38618
aF2.77778
aF-5.48182
aF-4.06737
aF-3.62299
aa(lp40
F-11.10162
aF-7.72988
aF8.64342
aF-10.17793
aF9.32218
aF0.8609
aF7.76787
aF35.82901
aF16.93152
aF-13.98565
aF5.42261
aF3.75066
aF-11.31413
aF-8.66496
aF-6.69762
aF12.53693
aF20.59477
aF-0.5253
aF19.21556
aF-13.94269
aF-10.61791
aF-14.03814
aF3.58033
aF-0.36126
aF-14.26636
aF12.59447
aF16.89673
aF-15.06568
aF-0.5829
aF10.41716
aF-6.75706
aF-5.52626
aF-5.36181
aF-5.04967
aF0.75063
aa(lp41
I0
aI0
aI0
aI0
aI0
aI0
aI0
aI0
aI0
aI0
aI0
aI0
aI0
aI0
aI0
aI0
aI0
aI0
aI0
aI0
aI0
aF0.21946
aF-6.43395
aF-9.70334
aF4.05145
aF4.22252
aF-3.30525
aF-4.4582
aF2.08597
aF11.33005
aF-1.45631
aF5.71848
aF-1.30246
aF-2.19391
aF0.5694
aa(lp42
F-10.82264
aF-3.23488
aF-5.43939
aF-4.33874
aF-0.04295
aF5.01195
aF8.07929
aF3.80948
aF16.19985
aF-12.58328
aF1.44356
aF5.60416
aF-7.56284
aF-24.9389
aF-13.35338
aF0.46864
aF7.95742
aF-6.01903
aF-3.299
aF-0.09674
aF-0.86722
aF-5.30085
aF4.39284
aF-0.56965
aF2.7675
aF10.35716
aF-7.39698
aF-4.89789
aF-5.21191
aF-2.99315
aF-9.11206
aF6.84431
aF-6.09543
aF0.67658
aF-3.22697
aa(lp43
F-0.30778
aF-9.59625
aF-1.91765
aF-1.13922
aF2.5766
aF0.50667
aF-9.45631
aF0.67286
aF11.76365
aF-5.84945
aF0.85062
aF6.84801
aF-5.74607
aF-0.85369
aF-1.36318
aF0.08422
aF10.70972
aF-3.87528
aF-3.43822
aF-2.23732
aF-0.91463
aF-0.68536
aF-1.54663
aF-2.07178
aF-3.21876
aF1.58074
aF-1.25871
aF0.38271
aF6.91053
aF1.80941
aF-6.58403
aF-0.79972
aF-5.66164
aF-4.13989
aF-0.11171
aa(lp44
F1.2
aF-2.75527
aF-1.99426
aF1.04267
aF-0.27523
aF4.70462
aF9.86811
aF8.22724
aF4.04648
aF-10.23631
aF-0.94343
aF-5.99965
aF-2.12152
aF-1.28127
aF-7.70662
aF-2.83891
aF7.81776
aF0.50728
aF3.35879
aF-4.99569
aF-1.4897
aF8.50245
aF3.69625
aF-3.72149
aF-5.64725
aF-0.94566
aF-6.10446
aF-2.13763
aF-5.32435
aF-1.75535
aF-4.4003
aF5.12902
aF-0.24845
aF-1.55917
aF-4.46384
aa(lp45
F-3.38192
aF2.73932
aF1.73211
aF3.15987
aF3.02383
aF9.71897
aF2.77873
aF21.48041
aF11.18881
aF-11.19591
aF9.35252
aF-2.26017
aF-0.85112
aF-8.5863
aF-8.37132
aF3.06271
aF16.15914
aF-7.24374
aF4.14549
aF-5.59006
aF-0.35367
aF-7.46397
aF3.21637
aF-6.84825
aF-4.9594
aF0.20615
aF-3.00174
aF-0.7394
aF-6.12109
aF7.16578
aF-10.0224
aF5.74983
aF-1.49056
aF-4.90129
aF-5.63798
aa(lp46
F2.76323
aF-10.44381
aF-1.907
aF-0.14429
aF3.78251
aF5.00682
aF3.5808
aF-2.55887
aF11.54353
aF-7.49505
aF5.3435
aF-1.44875
aF-4.97751
aF-2.27546
aF1.3858
aF1.42141
aF7.88757
aF-1.18766
aF-3.74139
aF-5.66868
aF-1.0871
aF-0.42318
aF-2.30172
aF0.21705
aF-3.29894
aF3.34738
aF3.2564
aF-1.987
aF6.54061
aF6.41026
aF-6.45756
aF-3.02306
aF-1.91874
aF-6.35349
aF-0.99988
aa(lp47
F-0.81336
aF4.43795
aF-0.48954
aF-3.79944
aF1.69005
aF1.50809
aF8.7292
aF16.75275
aF10.44776
aF-20.37633
aF4.36789
aF-1.63731
aF2.88412
aF-6.44225
aF-7.18681
aF-4.70126
aF15.68016
aF-7.68369
aF10.54978
aF-1.01021
aF-0.85796
aF-5.85596
aF3.37742
aF-5.46692
aF-15.52561
aF0.04513
aF-4.23083
aF1.31161
aF-11.71281
aF1.4875
aF-6.40161
aF6.78631
aF1.47529
aF-6.16526
aF-1.96577
aa(lp48
I0
aI0
aI0
aI0
aI0
aI0
aI0
aI0
aI0
aI0
aI0
aI0
aI0
aI0
aI0
aF10.35503
aF10.36735
aF-0.48741
aF-3.45098
aF-6.59341
aF0.99889
aF3.96154
aF-15.25424
aF-1.15979
aF-13.39286
aF1.50099
aF-7.43946
aF1.70088
aF6.5625
aF15.44012
aF-7.90698
aF5.61404
aF-9.52381
aF-1.50094
aF8.66463
aa(lp49
F-10.09811
aF-5.33333
aF-9.785
aF-2.98506
aF4.19463
aF-10.9624
aF4.51455
aF1.78855
aF8.88582
aF-2.63158
aF-1.09152
aF-0.75
aF-8.42403
aF-9.43515
aF-9.988
aF-1.71015
aF2.38599
aF-1.38605
aF-3.8376
aF-7.15208
aF-0.99572
aF-2.67062
aF-1.46599
aF7.93774
aF1.88456
aF0.06062
aF-14.07226
aF3.55396
aF-7.74098
aF-0.48279
aF-2.45695
aF4.78307
aF-6.5097
aF-1.60912
aF-2.22325
aa(lp50
F-4.97313
aF0.11278
aF0.35328
aF1.91842
aF-2.27681
aF2.60805
aF4.45309
aF15.18316
aF4.5007
aF-8.61877
aF0.73096
aF-7.94597
aF-7.43226
aF-7.0542
aF-6.81746
aF-2.16384
aF5.95467
aF-2.04214
aF-1.67959
aF-0.58637
aF-4.8854
aF14.47469
aF2.75421
aF-3.22913
aF-3.87589
aF-0.2635
aF-3.30465
aF1.81812
aF-6.58973
aF-2.83353
aF-5.24753
aF4.96373
aF0.62222
aF-0.79646
aF-2.21647
aa(lp51
F-1.89681
aF2.99973
aF5.65491
aF-3.99327
aF12.10507
aF-1.17675
aF8.16427
aF23.47619
aF21.21804
aF-19.07371
aF14.95602
aF4.44698
aF-14.35547
aF-7.95908
aF-8.90101
aF10.60675
aF24.58969
aF-3.28347
aF1.03207
aF-8.6941
aF-9.19927
aF-12.49048
aF8.15659
aF-12.61375
aF-9.15273
aF0.4527
aF-5.53365
aF-5.22051
aF-10.25153
aF8.38024
aF-7.94067
aF7.88238
aF-0.37106
aF-0.29035
aF-7.82316
aa(lp52
F29.20968
aF-1.77982
aF-22.74968
aF29.49611
aF-21.98616
aF22.57259
aF-22.19064
aF31.27269
aF-21.94334
aF24.06414
aF-20.09476
aF-1.59928
aF24.8853
aF-7.45899
aF-20.48066
aF19.31761
aF-19.88353
aF0.48823
aF18.94443
aF-17.36536
aF18.60161
aF-21.56265
aF18.57408
aF1.92102
aF-15.92899
aF-3.04773
aF18.50384
aF-9.82656
aF12.1016
aF-2.01744
aF-10.75358
aF10.51105
aF-10.86335
aF-0.5461
aF10.75302
aa(lp53
F29.20968
aF-1.77982
aF-22.74968
aF29.49611
aF-21.98616
aF22.57259
aF-22.19064
aF31.27269
aF-21.94334
aF24.06414
aF-20.09476
aF-1.59928
aF24.8853
aF-7.45899
aF-20.48066
aF19.31761
aF-19.88353
aF0.48823
aF18.94443
aF-17.36536
aF18.60161
aF-21.56265
aF18.57408
aF1.92102
aF-15.92899
aF-3.04773
aF18.50384
aF-9.82656
aF12.1016
aF-2.01744
aF-10.75358
aF10.51105
aF-10.86335
aF-0.5461
aF10.75302
aa(lp54
F2.77472
aF-0.09769
aF1.42814
aF5.52897
aF7.36528
aF5.74048
aF0.52524
aF16.60664
aF22.91909
aF-13.69238
aF17.41061
aF6.00464
aF-18.87503
aF-3.69427
aF-7.4214
aF7.95503
aF21.12262
aF-0.16691
aF-4.99504
aF-2.07872
aF-7.00211
aF-7.11659
aF5.99975
aF-7.65914
aF-15.62447
aF-1.26869
aF5.05252
aF1.7715
aF-9.43027
aF7.16033
aF-7.79126
aF10.07928
aF-3.843
aF-1.64739
aF-5.64979
aa(lp55
F-12.0341
aF-3.04293
aF-5.79646
aF-6.77555
aF-0.01196
aF-5.09888
aF3.92908
aF5.14666
aF3.03556
aF-3.89665
aF-0.66401
aF-3.76875
aF-2.14327
aF-5.23074
aF-5.41228
aF5.19393
aF1.19378
aF-4.66667
aF14.50382
aF-5.47957
aF-2.00325
aF0.03257
aF2.9601
aF0.27655
aF-1.75693
aF2.94692
aF-6.57228
aF-4.53863
aF-3.84967
aF-4.35247
aF-10.11668
aF1.87755
aF0.18154
aF4.90771
aF-7.44618
aa(lp56
F-46.53036
aF8.8775
aF5.36736
aF12.80861
aF3.53411
aF-2.79673
aF2.16028
aF13.23125
aF15.39863
aF-11.09761
aF5.85044
aF0.47414
aF-7.60653
aF-13.95888
aF-5.22219
aF-4.17896
aF16.58379
aF-9.06825
aF2.62232
aF-5.46001
aF11.01297
aF3.65713
aF5.43093
aF-6.14794
aF-6.68781
aF-0.4741
aF-2.08655
aF-6.27862
aF-6.83761
aF-0.53691
aF-1.77983
aF-2.04517
aF-4.46227
aF-5.59094
aF3.8191
aa(lp57
F-2.90583
aF-3.48755
aF5.55565
aF-4.40265
aF-0.66807
aF0.52428
aF6.4185
aF22.63791
aF19.95716
aF-20.34359
aF11.68637
aF0.96216
aF-11.74639
aF-8.58581
aF2.91111
aF3.91171
aF23.21693
aF-5.31605
aF0.25999
aF-9.86347
aF-0.95763
aF-2.90223
aF4.10789
aF0.75896
aF-11.78361
aF5.11588
aF-7.05863
aF-2.48782
aF-11.66344
aF-3.38724
aF-5.4936
aF4.62418
aF-1.61874
aF2.46531
aF-14.07733
aa(lp58
F-4.55211
aF-6.68804
aF6.5847
aF-2.90129
aF-0.67922
aF0.29879
aF8.36742
aF17.35208
aF7.14895
aF-13.54244
aF10.21814
aF1.03751
aF-12.43885
aF-6.00946
aF-3.88573
aF4.70763
aF31.11262
aF-4.08837
aF0.31069
aF-10.85644
aF0.0
aF-4.45223
aF9.93279
aF-2.26889
aF-7.86109
aF3.93196
aF-6.26324
aF-2.36677
aF-12.15125
aF-5.55936
aF-7.52184
aF5.68985
aF-3.97538
aF-4.1897
aF-7.90547
aa(lp59
F-1.80383
aF-7.67643
aF6.77965
aF-1.55815
aF0.67227
aF0.80696
aF11.13908
aF15.56901
aF21.00618
aF-14.50403
aF22.65142
aF1.40892
aF-9.38567
aF-6.70371
aF-7.67528
aF-0.87783
aF27.10322
aF-1.58427
aF1.17891
aF-4.3711
aF-6.89369
aF-3.09714
aF-3.65759
aF-5.44518
aF-5.80755
aF-2.63158
aF0.30885
aF-0.40595
aF-6.72485
aF-1.37328
aF-9.02896
aF6.89041
aF-0.78502
aF-6.44068
aF-8.68091
aa(lp60
F1.0716
aF-1.5078
aF-2.24111
aF-4.24926
aF-2.35575
aF4.55789
aF-1.73186
aF3.54263
aF6.56766
aF-15.61431
aF3.63445
aF-0.95404
aF0.74713
aF-2.92686
aF-2.03552
aF-4.07296
aF5.0204
aF-2.42817
aF0.85714
aF-0.42954
aF-2.47354
aF-4.08048
aF-0.73205
aF-0.71429
aF-6.62197
aF0.22541
aF-4.17407
aF-0.25235
aF-0.63516
aF0.22351
aF-2.06368
aF4.17237
aF-6.24198
aF-1.95426
aF-7.14147
aa(lp61
F4.92364
aF-5.35133
aF0.75656
aF-3.27164
aF1.93299
aF6.33779
aF5.92879
aF9.25486
aF3.55017
aF-15.27966
aF3.73333
aF-4.93493
aF1.49228
aF5.60985
aF-2.0777
aF-7.00606
aF2.92847
aF-2.11466
aF2.8728
aF-3.2283
aF-5.15675
aF-2.79178
aF0.16944
aF-1.39237
aF-7.48084
aF-2.58047
aF-4.47797
aF-1.02591
aF2.01863
aF4.75475
aF-3.58939
aF4.56821
aF-5.74496
aF0.76355
aF-4.8931
aa(lp62
F-1.99722
aF-1.95537
aF11.51833
aF-5.53673
aF17.54145
aF2.37789
aF1.48451
aF22.08572
aF7.92561
aF-22.40165
aF3.76521
aF0.41609
aF-10.30479
aF2.00633
aF2.72455
aF2.04458
aF12.33536
aF-5.8934
aF-2.8181
aF-5.22985
aF-3.55054
aF-3.90955
aF-6.09441
aF-0.24473
aF0.11308
aF6.49126
aF-3.90733
aF-4.16538
aF-2.28671
aF-4.181
aF-5.4867
aF6.66885
aF-6.77529
aF-4.72801
aF-2.17414
aa(lp63
F-8.46748
aF-2.0399
aF-3.51949
aF-8.24174
aF-1.76538
aF-0.76171
aF18.71249
aF6.71406
aF-3.03309
aF-1.76796
aF-2.33877
aF6.49057
aF3.00062
aF1.84274
aF-11.07046
aF10.10651
aF0.63808
aF5.64352
aF21.78074
aF-10.99048
aF3.20634
aF-5.36705
aF17.43604
aF-8.24032
aF-6.01666
aF4.11545
aF-6.11505
aF-8.06408
aF-5.26179
aF-5.95064
aF-3.89894
aF0.49331
aF1.82992
aF-0.22081
aF-8.6994
aa(lp64
F-1.93687
aF-8.51722
aF2.11338
aF-2.21071
aF-1.2716
aF-1.6672
aF5.76467
aF0.34173
aF11.93974
aF-13.29197
aF2.12075
aF-4.52245
aF0.09497
aF0.23474
aF-5.23131
aF-1.97309
aF4.59662
aF-0.77567
aF-2.95092
aF-2.55713
aF0.70734
aF-0.29386
aF-3.41266
aF2.17581
aF-2.84667
aF-5.16396
aF-2.18594
aF-0.48144
aF-5.02249
aF0.2505
aF-4.65727
aF1.70637
aF-5.32721
aF-4.91266
aF-3.3303
aa(lp65
F0.59029
aF-13.93564
aF-0.60423
aF2.30765
aF0.02746
aF1.65692
aF6.60848
aF4.18775
aF11.31491
aF-9.95281
aF2.48147
aF-1.7735
aF-3.36568
aF2.85947
aF-4.58622
aF-5.65081
aF11.39785
aF-0.59855
aF-4.9187
aF-4.13202
aF-0.6311
aF-1.9394
aF-5.01761
aF2.1399
aF-3.68895
aF-3.33204
aF-0.66667
aF2.71654
aF-5.21807
aF-1.05672
aF-4.15041
aF1.68726
aF-10.82751
aF-3.8744
aF-3.12347
aa(lp66
F-7.37705
aF-8.25362
aF-0.18702
aF-8.35392
aF-5.26557
aF-0.92992
aF8.14739
aF3.64726
aF10.1541
aF-5.92752
aF-4.92587
aF-0.87699
aF-3.45538
aF-3.37018
aF-6.77831
aF14.88002
aF7.7036
aF5.46815
aF11.76182
aF-6.1387
aF-3.00505
aF-9.44701
aF1.15768
aF-6.73721
aF-3.98092
aF4.25697
aF-7.70585
aF-10.41179
aF-18.03445
aF-4.97325
aF0.65372
aF1.23048
aF-0.98407
aF3.38332
aF-9.03815
aa(lp67
F2.37636
aF-0.45759
aF0.0
aF-4.86472
aF7.98972
aF2.78415
aF10.13709
aF6.8312
aF10.72182
aF-10.06074
aF0.51021
aF-2.26195
aF-4.99133
aF-6.90856
aF-4.52612
aF-0.266
aF-1.2057
aF-3.27729
aF3.48356
aF-7.99356
aF-5.88235
aF-0.92546
aF-0.58963
aF0.77172
aF-8.49658
aF-3.74116
aF-6.21561
aF1.62184
aF1.97716
aF0.24938
aF-4.55157
aF6.38564
aF-5.20277
aF-2.9294
aF-2.22959
aa(lp68
F5.59507
aF-3.85837
aF-0.47875
aF-5.60168
aF-0.62514
aF4.75962
aF2.53714
aF0.94448
aF3.16719
aF-8.01199
aF-0.56828
aF-2.57151
aF4.78474
aF-0.30699
aF-1.404
aF-5.41946
aF1.5603
aF-1.02994
aF1.74371
aF-1.64217
aF-3.13319
aF0.58479
aF-0.02978
aF2.21721
aF-6.21342
aF-4.07213
aF-3.86823
aF-0.06828
aF1.1242
aF2.89427
aF-0.7319
aF3.99774
aF-6.82276
aF-3.06255
aF-3.10692
aa(lp69
F-12.75583
aF-0.23448
aF-5.01093
aF-5.44523
aF-5.88302
aF-2.99436
aF3.33534
aF6.62888
aF11.44492
aF-5.42147
aF-5.10361
aF5.30952
aF-6.31274
aF1.25877
aF-10.68748
aF6.53255
aF4.91874
aF-0.20455
aF9.23535
aF-12.00757
aF-2.96799
aF-7.5098
aF-1.58569
aF-2.22596
aF-8.36476
aF-0.2276
aF-6.60219
aF-5.74278
aF-1.98362
aF-6.33191
aF-6.86111
aF-0.22461
aF2.38095
aF2.16564
aF-11.97256
aa(lp70
F-4.82347
aF-5.24967
aF5.72478
aF-4.63938
aF4.20891
aF4.48803
aF8.59206
aF2.0148
aF13.70324
aF-6.05211
aF39.94662
aF-2.97823
aF-8.01189
aF-8.92076
aF-7.22881
aF-3.30612
aF18.30615
aF-5.33088
aF0.369
aF-7.67312
aF0.55962
aF-6.76664
aF-9.26452
aF3.01148
aF-8.95676
aF3.95333
aF2.08052
aF-3.19262
aF-4.06848
aF-1.18163
aF-8.72111
aF6.11027
aF-4.81702
aF-5.0208
aF-3.96376
aa(lp71
F-2.84644
aF-6.83725
aF0.81262
aF-2.64347
aF6.12254
aF-0.16631
aF5.5681
aF7.21954
aF8.88567
aF-12.97229
aF5.26678
aF2.07171
aF0.91128
aF-4.73006
aF-1.83788
aF-3.06346
aF5.7561
aF-4.93767
aF3.65782
aF-2.60763
aF-1.47843
aF-1.91786
aF3.42466
aF0.31902
aF-6.04104
aF1.04363
aF-2.17835
aF-0.6023
aF-2.50982
aF3.1982
aF-2.10995
aF2.45164
aF-4.87805
aF-3.21086
aF2.02746
aa(lp72
F9.06433
aF0.73878
aF-19.19798
aF-9.64716
aF-7.61045
aF5.88776
aF6.39741
aF-4.66703
aF0.65041
aF2.57317
aF-0.86006
aF-2.08772
aF6.15514
aF-16.20475
aF1.23571
aF-3.20702
aF9.45792
aF-6.32815
aF2.4969
aF2.49383
aF7.78016
aF1.28579
aF-4.25058
aF3.84846
aF-0.46071
aF3.77356
aF-4.52753
aF-5.48082
aF1.06032
aF-2.83883
aF3.75872
aF0.54374
aF-5.53819
aF-10.89064
aF-0.62342
aa(lp73
F0.42402
aF-4.55095
aF-1.19628
aF-3.2796
aF1.64954
aF2.10633
aF9.5848
aF3.24948
aF9.40004
aF-5.08515
aF1.43276
aF-2.85907
aF-3.79684
aF-4.98259
aF-7.54815
aF8.82629
aF-1.73575
aF4.32069
aF5.60839
aF1.08224
aF-5.15561
aF-6.98014
aF4.93267
aF0.7109
aF-6.1574
aF-7.57256
aF-3.48892
aF-0.0761
aF-0.65286
aF0.27537
aF-2.26836
aF3.95659
aF-7.74829
aF4.85175
aF-7.01692
aa(lp74
F-4.64363
aF-6.18938
aF9.91459
aF-7.12092
aF8.66614
aF1.06181
aF12.59607
aF22.31595
aF18.58736
aF-16.15584
aF8.31669
aF9.29231
aF-7.24886
aF-14.34572
aF-1.75522
aF1.77915
aF22.96081
aF-4.59444
aF7.17325
aF-7.19122
aF-7.76749
aF-10.45601
aF2.38654
aF-5.61497
aF-9.51613
aF5.04024
aF-8.54916
aF-12.03891
aF-8.29252
aF-0.9379
aF0.38291
aF4.25676
aF-4.88432
aF-6.01373
aF-5.41678
aa(lp75
F-5.57185
aF-10.94867
aF-7.09079
aF-8.11876
aF-5.3488
aF-0.01242
aF7.99142
aF-3.04073
aF6.751
aF-14.32442
aF-2.32653
aF1.22132
aF-1.58391
aF1.86358
aF-5.73761
aF15.14058
aF5.61592
aF-1.35589
aF25.71429
aF-11.30306
aF-0.09979
aF-5.54733
aF16.0484
aF-4.69183
aF-7.70576
aF8.84493
aF-1.45147
aF-6.74673
aF-7.5516
aF-4.26641
aF-6.92491
aF-0.89053
aF-1.33933
aF1.28052
aF-11.07311
aa(lp76
F0.08
aF1.5
aF0.25
aF2.85
aF-2.16
aF-2.53
aF4.42
aF1.4
aF0.15
aF-2.67
aF0.86
aF1.54
aF0.66
aF-0.98
aF-0.73
aF0.09
aF-0.24
aF-3.28
aF4.28
aF-1.34
aF-2.19
aF-2.63
aF0.99
aF1.39
aF2.61
aF0.16
aF2.8
aF3.52
aF-2.51
aF-1.76
aF-0.64
aF-3.82
aF3.41
aF3.19
aF2.29
aa(lp77
F0.56
aF-0.63
aF-7.95
aF-0.35
aF0.16
aF0.54
aF0.91
aF-0.32
aF0.73
aF0.56
aF-1.39
aF-0.12
aF-0.13
aF0.3
aF0.69
aF0.68
aF0.68
aF0.17
aF0.83
aF0.56
aF1.25
aF-3.04
aF1.5
aF2.56
aF1.15
aF0.86
aF0.42
aF0.65
aF0.51
aF0.24
aF0.45
aF0.64
aF0.96
aF0.61
aF0.41
aa(lp78
F0.99
aF1.15
aF0.32
aF-22.86
aF-0.41
aF29.08
aF0.57
aF-0.28
aF0.81
aF0.76
aF-1.12
aF0.78
aF4.47
aF-3.68
aF4.43
aF-4.11
aF0.96
aF-1.16
aF1.69
aF1.0
aF-0.13
aF-0.8
aF0.4
aF0.14
aF1.56
aF0.26
aF0.33
aF0.41
aF0.91
aF-1.52
aF1.46
aF1.15
aF0.93
aF0.39
aF1.42
aa(lp79
F0.3
aF0.97
aF-0.17
aF0.8
aF0.26
aF-0.6
aF-0.44
aF-0.52
aF-0.49
aF1.01
aF-0.59
aF-0.56
aF-0.51
aF1.55
aF-0.25
aF-0.87
aF-1.93
aF-0.84
aF0.49
aF-0.62
aF0.93
aF0.34
aF-0.14
aF0.69
aF2.04
aF-0.6
aF0.66
aF4.28
aF-1.47
aF0.48
aF1.08
aF-0.08
aF0.28
aF-0.3
aF-0.5
aa(lp80
F-0.48
aF1.97
aF7.15
aF-1.07
aF0.64
aF0.42
aF2.53
aF-3.05
aF-0.88
aF2.24
aF-0.05
aF0.38
aF1.99
aF3.36
aF-0.08
aF-0.09
aF0.09
aF3.93
aF3.98
aF0.75
aF0.96
aF2.34
aF-0.27
aF7.01
aF3.98
aF0.08
aF3.73
aF10.13
aF3.62
aF-2.14
aF1.21
aF0.75
aF0.88
aF2.9
aF1.36
aa(lp81
F-1.88
aF0.61
aF0.29
aF-0.12
aF-0.98
aF-0.76
aF-1.25
aF-0.47
aF-1.58
aF1.03
aF-1.86
aF0.19
aF1.67
aF1.13
aF0.9
aF0.2
aF-0.48
aF-1.64
aF0.56
aF1.88
aF0.0
aF0.92
aF1.17
aF0.89
aF1.96
aF0.33
aF-0.05
aF-0.13
aF-0.2
aF-0.54
aF1.06
aF-0.36
aF0.6
aF1.85
aF1.69
aa(lp82
F0.31
aF0.27
aF-3.45
aF-0.06
aF-0.06
aF0.3
aF0.41
aF0.16
aF0.49
aF0.4
aF0.23
aF0.01
aF0.43
aF0.32
aF0.41
aF0.48
aF0.51
aF0.62
aF0.43
aF0.23
aF0.32
aF0.25
aF0.29
aF0.56
aF0.52
aF0.33
aF0.26
aF0.43
aF0.17
aF0.17
aF0.33
aF0.32
aF0.42
aF0.31
aF0.28
aa(lp83
F-9.4
aF1.0
aF0.26
aF-0.13
aF0.17
aF-0.08
aF-1.02
aF1.94
aF-0.13
aF1.78
aF0.08
aF1.37
aF1.97
aF-5.02
aF7.51
aF-5.89
aF-1.5
aF1.88
aF0.97
aF1.14
aF0.33
aF0.47
aF0.83
aF-0.09
aF0.0
aF1.87
aF0.24
aF0.18
aF1.89
aF-2.64
aF0.91
aF0.76
aF0.16
aF0.9
aF0.41
aa(lp84
F1.86
aF0.54
aF-0.03
aF0.31
aF-0.19
aF-1.02
aF-0.44
aF0.0
aF-2.64
aF0.79
aF-0.46
aF-0.25
aF-0.07
aF0.69
aF0.09
aF0.02
aF-0.55
aF-0.29
aF0.14
aF0.26
aF0.0
aF0.1
aF4.74
aF1.03
aF1.75
aF0.04
aF1.64
aF0.52
aF1.71
aF0.0
aF26.56
aF0.13
aF0.99
aF0.41
aF0.0
aa(lp85
F-0.61
aF0.87
aF0.35
aF-0.38
aF0.68
aF2.06
aF1.09
aF-0.4
aF-2.74
aF-2.19
aF0.98
aF1.05
aF2.55
aF0.11
aF1.5
aF-1.07
aF-5.46
aF2.95
aF-0.04
aF-0.6
aF-1.36
aF-1.04
aF0.68
aF-0.54
aF1.71
aF0.49
aF1.22
aF5.15
aF-2.08
aF0.13
aF-0.95
aF0.38
aF0.0
aF1.25
aF1.05
aa(lp86
F0.11
aF0.37
aF-0.25
aF1.6
aF-1.37
aF-1.68
aF1.36
aF-1.7
aF-2.78
aF-0.3
aF-1.48
aF-0.37
aF1.3
aF0.9
aF-1.2
aF-0.02
aF-0.94
aF-1.16
aF1.06
aF-0.29
aF0.02
aF-0.36
aF0.09
aF0.62
aF0.0
aF1.83
aF0.44
aF1.11
aF0.82
aF-1.21
aF0.51
aF-0.57
aF0.45
aF1.44
aF0.71
aa(lp87
I0
aI0
aI0
aF1.74
aF0.32
aF-0.25
aF-0.09
aF0.35
aF0.55
aF-0.16
aF0.43
aF1.19
aF0.41
aF0.93
aF0.54
aF0.95
aF0.61
aF0.3
aF0.63
aF0.26
aF-0.4
aF1.45
aF0.4
aF0.62
aF-0.06
aF0.46
aF0.48
aF0.0
aF0.0
aF0.0
aF0.0
aF0.0
aF0.0
aF0.0
aF0.0
aa(lp88
F-0.07
aF-0.77
aF2.32
aF0.18
aF-0.9
aF0.59
aF-0.48
aF-9.55
aF-11.09
aF11.11
aF0.69
aF1.21
aF3.55
aF1.17
aF2.2
aF0.31
aF-4.22
aF1.6
aF0.71
aF2.91
aF0.81
aF0.99
aF-0.17
aF0.73
aF1.37
aF1.2
aF1.39
aF2.34
aF5.57
aF1.04
aF-1.33
aF0.49
aF0.91
aF0.62
aF0.96
aa(lp89
F1.31
aF2.09
aF-0.25
aF-1.04
aF-1.68
aF2.25
aF-0.11
aF-6.98
aF-2.23
aF4.69
aF-5.92
aF1.69
aF5.21
aF7.8
aF1.96
aF-5.04
aF-11.71
aF5.75
aF-5.46
aF-1.49
aF1.63
aF2.73
aF7.08
aF7.89
aF4.25
aF2.61
aF9.99
aF9.99
aF3.28
aF-2.0
aF3.71
aF-9.88
aF8.84
aF0.69
aF4.04
aa(lp90
F1.01
aF-0.97
aF2.82
aF-0.77
aF1.55
aF-1.76
aF-0.93
aF-3.01
aF-1.16
aF0.56
aF-2.06
aF0.25
aF9.92
aF-4.96
aF5.01
aF-4.55
aF-1.5
aF0.55
aF1.85
aF0.83
aF0.91
aF1.86
aF0.83
aF0.36
aF-0.77
aF0.37
aF-0.57
aF-0.55
aF0.84
aF-0.24
aF0.49
aF1.82
aF0.19
aF0.31
aF0.51
aa(lp91
F1.22
aF2.05
aF0.37
aF2.87
aF-2.18
aF-3.19
aF0.85
aF-0.87
aF1.32
aF1.19
aF-2.53
aF1.25
aF5.73
aF-4.08
aF4.97
aF-5.06
aF1.59
aF-2.59
aF3.09
aF1.64
aF-0.53
aF-1.89
aF0.53
aF-0.01
aF2.84
aF0.28
aF0.41
aF0.57
aF1.54
aF-3.25
aF2.69
aF2.03
aF1.59
aF0.52
aF2.58
aa(lp92
F1.7
aF2.74
aF0.46
aF1.82
aF0.07
aF-1.07
aF-1.4
aF-0.27
aF-1.09
aF2.72
aF-1.06
aF-1.48
aF-0.76
aF3.07
aF-0.46
aF-1.87
aF-3.88
aF-1.21
aF0.22
aF-0.3
aF3.56
aF0.08
aF1.29
aF2.76
aF3.26
aF-0.66
aF1.03
aF9.18
aF-2.92
aF0.7
aF2.37
aF-0.57
aF1.31
aF0.3
aF0.6
aa(lp93
F2.58
aF2.57
aF1.07
aF2.74
aF1.89
aF0.73
aF1.6
aF-1.22
aF0.19
aF1.1
aF0.72
aF3.54
aF5.96
aF3.59
aF3.56
aF1.16
aF0.1
aF3.22
aF6.86
aF1.48
aF1.03
aF2.3
aF2.22
aF1.4
aF2.15
aF1.1
aF1.89
aF2.45
aF2.24
aF-0.68
aF0.8
aF-0.58
aF2.24
aF2.28
aF2.82
aa(lp94
F0.08
aF1.51
aF0.25
aF3.0
aF-2.16
aF-2.51
aF4.59
aF1.43
aF0.16
aF-2.59
aF0.97
aF1.65
aF0.63
aF-0.83
aF-0.68
aF0.12
aF-0.22
aF-3.17
aF4.41
aF-1.29
aF-2.18
aF-2.54
aF1.0
aF1.36
aF2.51
aF0.17
aF2.66
aF3.41
aF-2.4
aF-1.77
aF-0.63
aF-3.8
aF3.47
aF3.2
aF2.2
aa(lp95
F1.94
aF0.18
aF0.87
aF-0.82
aF-1.25
aF-4.6
aF-0.77
aF-16.46
aF-9.16
aF14.53
aF-5.91
aF-0.25
aF14.54
aF4.78
aF-2.29
aF-4.5
aF-10.47
aF-0.18
aF3.5
aF4.46
aF5.42
aF2.46
aF0.61
aF6.17
aF2.13
aF1.95
aF0.26
aF4.45
aF5.57
aF-5.97
aF0.89
aF0.17
aF-0.02
aF2.68
aF3.65
aa(lp96
F1.91
aF0.14
aF0.82
aF-0.88
aF-1.32
aF-4.71
aF-0.86
aF-16.56
aF-9.25
aF14.44
aF-6.0
aF-0.32
aF14.48
aF4.75
aF-2.31
aF-4.51
aF-10.53
aF-0.13
aF3.49
aF8.52
aF1.49
aF2.47
aF0.62
aF6.18
aF2.14
aF2.06
aF0.27
aF4.45
aF5.57
aF-5.95
aF0.9
aF0.18
aF-0.01
aF2.69
aF7.68
aa(lp97
F1.91
aF0.14
aF0.82
aF-0.88
aF-1.32
aF-4.71
aF-0.86
aF-16.56
aF-9.25
aF14.44
aF-5.99
aF-0.32
aF14.48
aF4.75
aF-2.31
aF-4.51
aF-10.48
aF-0.19
aF3.49
aF0.0
aF10.14
aF2.47
aF0.62
aF6.18
aF2.14
aF2.07
aF0.27
aF4.45
aF5.57
aF-5.95
aF0.9
aF0.18
aF-0.01
aF2.69
aF-0.22
aa(lp98
I0
aI0
aI0
aI0
aI0
aI0
aI0
aI0
aI0
aI0
aI0
aI0
aI0
aI0
aF1.27
aF-0.11
aF-1.04
aF1.28
aF-1.67
aF-1.38
aF0.06
aF-0.24
aF1.66
aF2.32
aF2.15
aF-0.17
aF0.98
aF0.6
aF2.16
aF-1.98
aF2.94
aF0.01
aF3.99
aF-0.08
aF-1.8
aa(lp99
I0
aI0
aI0
aI0
aI0
aI0
aI0
aI0
aI0
aI0
aI0
aI0
aI0
aI0
aI0
aI0
aI0
aI0
aI0
aI0
aI0
aI0
aF0.52
aF0.29
aF0.08
aF0.04
aF0.24
aF0.63
aF0.42
aF-0.35
aF0.13
aF0.13
aF-0.17
aF0.26
aF0.11
aa(lp100
I0
aI0
aI0
aI0
aI0
aI0
aI0
aI0
aI0
aI0
aI0
aI0
aI0
aI0
aI0
aI0
aI0
aI0
aI0
aI0
aI0
aI0
aI0
aI0
aI0
aI0
aI0
aI0
aI0
aF1.54
aF1.5
aF1.72
aF0.09
aF1.05
aF-2.08
aa.