(lp0
(lp1
F1.5
aF0.25
aF2.85
aF-2.16
aF-2.53
aF4.42
aF1.4
aF0.15
aF-2.67
aF0.86
aF1.54
aF0.66
aF-0.98
aF-0.73
aF0.09
aF-0.24
aF-3.28
aF4.28
aF-1.34
aF-2.19
aF-2.63
aF0.99
aF1.39
aF2.61
aF0.16
aF2.8
aF3.52
aF-2.51
aF-1.76
aF-0.64
aF-3.82
aF3.41
aF3.19
aF2.29
aF0.37
aa(lp2
F-0.63
aF-7.95
aF-0.35
aF0.16
aF0.54
aF0.91
aF-0.32
aF0.73
aF0.56
aF-1.39
aF-0.12
aF-0.13
aF0.3
aF0.69
aF0.68
aF0.68
aF0.17
aF0.83
aF0.56
aF1.25
aF-3.04
aF1.5
aF2.56
aF1.15
aF0.86
aF0.42
aF0.65
aF0.51
aF0.24
aF0.45
aF0.64
aF0.96
aF0.61
aF0.41
aF0.69
aa(lp3
F1.15
aF0.32
aF-22.86
aF-0.41
aF29.08
aF0.57
aF-0.28
aF0.81
aF0.76
aF-1.12
aF0.78
aF4.47
aF-3.68
aF4.43
aF-4.11
aF0.96
aF-1.16
aF1.69
aF1.0
aF-0.13
aF-0.8
aF0.4
aF0.14
aF1.56
aF0.26
aF0.33
aF0.41
aF0.91
aF-1.52
aF1.46
aF1.15
aF0.93
aF0.39
aF1.42
aF1.74
aa(lp4
F0.97
aF-0.17
aF0.8
aF0.26
aF-0.6
aF-0.44
aF-0.52
aF-0.49
aF1.01
aF-0.59
aF-0.56
aF-0.51
aF1.55
aF-0.25
aF-0.87
aF-1.93
aF-0.84
aF0.49
aF-0.62
aF0.93
aF0.34
aF-0.14
aF0.69
aF2.04
aF-0.6
aF0.66
aF4.28
aF-1.47
aF0.48
aF1.08
aF-0.08
aF0.28
aF-0.3
aF-0.5
aF1.6
aa(lp5
F0.61
aF0.29
aF-0.12
aF-0.98
aF-0.76
aF-1.25
aF-0.47
aF-1.58
aF1.03
aF-1.86
aF0.19
aF1.67
aF1.13
aF0.9
aF0.2
aF-0.48
aF-1.64
aF0.56
aF1.88
aF0.0
aF0.92
aF1.17
aF0.89
aF1.96
aF0.33
aF-0.05
aF-0.13
aF-0.2
aF-0.54
aF1.06
aF-0.36
aF0.6
aF1.85
aF1.69
aF1.95
aa(lp6
F1.97
aF7.15
aF-1.07
aF0.64
aF0.42
aF2.53
aF-3.05
aF-0.88
aF2.24
aF-0.05
aF0.38
aF1.99
aF3.36
aF-0.08
aF-0.09
aF0.09
aF3.93
aF3.98
aF0.75
aF0.96
aF2.34
aF-0.27
aF7.01
aF3.98
aF0.08
aF3.73
aF10.13
aF3.62
aF-2.14
aF1.21
aF0.75
aF0.88
aF2.9
aF1.36
aF0.75
aa(lp7
F0.27
aF-3.45
aF-0.06
aF-0.06
aF0.3
aF0.41
aF0.16
aF0.49
aF0.4
aF0.23
aF0.01
aF0.43
aF0.32
aF0.41
aF0.48
aF0.51
aF0.62
aF0.43
aF0.23
aF0.32
aF0.25
aF0.29
aF0.56
aF0.52
aF0.33
aF0.26
aF0.43
aF0.17
aF0.17
aF0.33
aF0.32
aF0.42
aF0.31
aF0.28
aF0.21
aa(lp8
F1.0
aF0.26
aF-0.13
aF0.17
aF-0.08
aF-1.02
aF1.94
aF-0.13
aF1.78
aF0.08
aF1.37
aF1.97
aF-5.02
aF7.51
aF-5.89
aF-1.5
aF1.88
aF0.97
aF1.14
aF0.33
aF0.47
aF0.83
aF-0.09
aF0.0
aF1.87
aF0.24
aF0.18
aF1.89
aF-2.64
aF0.91
aF0.76
aF0.16
aF0.9
aF0.41
aF0.26
aa(lp9
F0.54
aF-0.03
aF0.31
aF-0.19
aF-1.02
aF-0.44
aF0.0
aF-2.64
aF0.79
aF-0.46
aF-0.25
aF-0.07
aF0.69
aF0.09
aF0.02
aF-0.55
aF-0.29
aF0.14
aF0.26
aF0.0
aF0.1
aF4.74
aF1.03
aF1.75
aF0.04
aF1.64
aF0.52
aF1.71
aF0.0
aF26.56
aF0.13
aF0.99
aF0.41
aF0.0
aF1.59
aa(lp10
F0.37
aF-0.25
aF1.6
aF-1.37
aF-1.68
aF1.36
aF-1.7
aF-2.78
aF-0.3
aF-1.48
aF-0.37
aF1.3
aF0.9
aF-1.2
aF-0.02
aF-0.94
aF-1.16
aF1.06
aF-0.29
aF0.02
aF-0.36
aF0.09
aF0.62
aF0.0
aF1.83
aF0.44
aF1.11
aF0.82
aF-1.21
aF0.51
aF-0.57
aF0.45
aF1.44
aF0.71
aF-0.51
aa(lp11
F0.87
aF0.35
aF-0.38
aF0.68
aF2.06
aF1.09
aF-0.4
aF-2.74
aF-2.19
aF0.98
aF1.05
aF2.55
aF0.11
aF1.5
aF-1.07
aF-5.46
aF2.95
aF-0.04
aF-0.6
aF-1.36
aF-1.04
aF0.68
aF-0.54
aF1.71
aF0.49
aF1.22
aF5.15
aF-2.08
aF0.13
aF-0.95
aF0.38
aF0.0
aF1.25
aF1.05
aF-0.04
aa(lp12
F-0.77
aF2.32
aF0.18
aF-0.9
aF0.59
aF-0.48
aF-9.55
aF-11.09
aF11.11
aF0.69
aF1.21
aF3.55
aF1.17
aF2.2
aF0.31
aF-4.22
aF1.6
aF0.71
aF2.91
aF0.81
aF0.99
aF-0.17
aF0.73
aF1.37
aF1.2
aF1.39
aF2.34
aF5.57
aF1.04
aF-1.33
aF0.49
aF0.91
aF0.62
aF0.96
aF1.24
aa(lp13
F2.05
aF0.37
aF2.87
aF-2.18
aF-3.19
aF0.85
aF-0.87
aF1.32
aF1.19
aF-2.53
aF1.25
aF5.73
aF-4.08
aF4.97
aF-5.06
aF1.59
aF-2.59
aF3.09
aF1.64
aF-0.53
aF-1.89
aF0.53
aF-0.01
aF2.84
aF0.28
aF0.41
aF0.57
aF1.54
aF-3.25
aF2.69
aF2.03
aF1.59
aF0.52
aF2.58
aF3.19
aa(lp14
F-0.97
aF2.82
aF-0.77
aF1.55
aF-1.76
aF-0.93
aF-3.01
aF-1.16
aF0.56
aF-2.06
aF0.25
aF9.92
aF-4.96
aF5.01
aF-4.55
aF-1.5
aF0.55
aF1.85
aF0.83
aF0.91
aF1.86
aF0.83
aF0.36
aF-0.77
aF0.37
aF-0.57
aF-0.55
aF0.84
aF-0.24
aF0.49
aF1.82
aF0.19
aF0.31
aF0.51
aF0.68
aa(lp15
F2.09
aF-0.25
aF-1.04
aF-1.68
aF2.25
aF-0.11
aF-6.98
aF-2.23
aF4.69
aF-5.92
aF1.69
aF5.21
aF7.8
aF1.96
aF-5.04
aF-11.71
aF5.75
aF-5.46
aF-1.49
aF1.63
aF2.73
aF7.08
aF7.89
aF4.25
aF2.61
aF9.99
aF9.99
aF3.28
aF-2.0
aF3.71
aF-9.88
aF8.84
aF0.69
aF4.04
aF2.24
aa(lp16
F2.74
aF0.46
aF1.82
aF0.07
aF-1.07
aF-1.4
aF-0.27
aF-1.09
aF2.72
aF-1.06
aF-1.48
aF-0.76
aF3.07
aF-0.46
aF-1.87
aF-3.88
aF-1.21
aF0.22
aF-0.3
aF3.56
aF0.08
aF1.29
aF2.76
aF3.26
aF-0.66
aF1.03
aF9.18
aF-2.92
aF0.7
aF2.37
aF-0.57
aF1.31
aF0.3
aF0.6
aF2.8
aa(lp17
F2.57
aF1.07
aF2.74
aF1.89
aF0.73
aF1.6
aF-1.22
aF0.19
aF1.1
aF0.72
aF3.54
aF5.96
aF3.59
aF3.56
aF1.16
aF0.1
aF3.22
aF6.86
aF1.48
aF1.03
aF2.3
aF2.22
aF1.4
aF2.15
aF1.1
aF1.89
aF2.45
aF2.24
aF-0.68
aF0.8
aF-0.58
aF2.24
aF2.28
aF2.82
aF0.74
aa(lp18
F1.51
aF0.25
aF3.0
aF-2.16
aF-2.51
aF4.59
aF1.43
aF0.16
aF-2.59
aF0.97
aF1.65
aF0.63
aF-0.83
aF-0.68
aF0.12
aF-0.22
aF-3.17
aF4.41
aF-1.29
aF-2.18
aF-2.54
aF1.0
aF1.36
aF2.51
aF0.17
aF2.66
aF3.41
aF-2.4
aF-1.77
aF-0.63
aF-3.8
aF3.47
aF3.2
aF2.2
aF0.37
aa(lp19
I0
aI0
aI0
aI0
aI0
aI0
aI0
aI0
aI0
aI0
aI0
aI0
aI0
aF1.27
aF-0.11
aF-1.04
aF1.28
aF-1.67
aF-1.38
aF0.06
aF-0.24
aF1.66
aF2.32
aF2.15
aF-0.17
aF0.98
aF0.6
aF2.16
aF-1.98
aF2.94
aF0.01
aF3.99
aF-0.08
aF-1.8
aF0.52
aa(lp20
F0.18
aF0.87
aF-0.82
aF-1.25
aF-4.6
aF-0.77
aF-16.46
aF-9.16
aF14.53
aF-5.91
aF-0.25
aF14.54
aF4.78
aF-2.29
aF-4.5
aF-10.47
aF-0.18
aF3.5
aF4.46
aF5.42
aF2.46
aF0.61
aF6.17
aF2.13
aF1.95
aF0.26
aF4.45
aF5.57
aF-5.97
aF0.89
aF0.17
aF-0.02
aF2.68
aF3.65
aF-1.67
aa(lp21
F0.14
aF0.82
aF-0.88
aF-1.32
aF-4.71
aF-0.86
aF-16.56
aF-9.25
aF14.44
aF-6.0
aF-0.32
aF14.48
aF4.75
aF-2.31
aF-4.51
aF-10.53
aF-0.13
aF3.49
aF8.52
aF1.49
aF2.47
aF0.62
aF6.18
aF2.14
aF2.06
aF0.27
aF4.45
aF5.57
aF-5.95
aF0.9
aF0.18
aF-0.01
aF2.69
aF7.68
aF-5.34
aa(lp22
F0.14
aF0.82
aF-0.88
aF-1.32
aF-4.71
aF-0.86
aF-16.56
aF-9.25
aF14.44
aF-5.99
aF-0.32
aF14.48
aF4.75
aF-2.31
aF-4.51
aF-10.48
aF-0.19
aF3.49
aF0.0
aF10.14
aF2.47
aF0.62
aF6.18
aF2.14
aF2.07
aF0.27
aF4.45
aF5.57
aF-5.95
aF0.9
aF0.18
aF-0.01
aF2.69
aF-0.22
aF2.15
aa(lp23
I0
aI0
aI0
aI0
aI0
aI0
aI0
aI0
aI0
aI0
aI0
aI0
aI0
aI0
aI0
aI0
aI0
aI0
aI0
aI0
aI0
aF0.52
aF0.29
aF0.08
aF0.04
aF0.24
aF0.63
aF0.42
aF-0.35
aF0.13
aF0.13
aF-0.17
aF0.26
aF0.11
aF0.13
aa(lp24
I0
aI0
aI0
aI0
aI0
aI0
aI0
aI0
aI0
aI0
aI0
aI0
aI0
aI0
aI0
aI0
aI0
aI0
aI0
aI0
aI0
aI0
aI0
aI0
aI0
aI0
aI0
aI0
aF1.54
aF1.5
aF1.72
aF0.09
aF1.05
aF-2.08
aF0.25
aa(lp25
I0
aI0
aI0
aI0
aI0
aI0
aI0
aI0
aI0
aI0
aI0
aI0
aI0
aI0
aI0
aI0
aI0
aI0
aI0
aI0
aI0
aI0
aI0
aI0
aI0
aI0
aI0
aI0
aI0
aI0
aI0
aI0
aI0
aF1.44
aF1.09
aa.