(lp0
(S'JPM'
p1
S'JPMORGAN CHASE & CO'
p2
tp3
a(S'C'
p4
S'CITIGROUP INC'
p5
tp6
a(S'GS'
p7
S'GOLDMAN SACHS GROUP INC'
p8
tp9
a(S'MS'
p10
S'MORGAN STANLEY DEAN WITTER & CO'
p11
tp12
a(S'IVV'
p13
S'ISHARES TRUST'
p14
tp15
a(S'EFA'
p16
S'ISHARES TRUST'
p17
tp18
a(S'BLK'
p19
S'BLACKROCK INC'
p20
tp21
a(S'DB'
p22
S'DEUTSCHE BANK A G'
p23
tp24
a(S'PRU'
p25
S'PRUDENTIAL FINANCIAL INC'
p26
tp27
a(S'EEM'
p28
S'ISHARES TRUST'
p29
tp30
a(S'BEN'
p31
S'FRANKLIN RESOURCES INC'
p32
tp33
a(S'SCHW'
p34
S'SCHWAB CHARLES CORP NEW'
p35
tp36
a(S'GLD'
p37
S'SPDR GOLD TRUST'
p38
tp39
a(S'IWM'
p40
S'ISHARES TRUST'
p41
tp42
a(S'CME'
p43
S'C M E GROUP INC'
p44
tp45
a(S'ICE'
p46
S'INTERCONTINENTALEXCHANGE GRP INC'
p47
tp48
a(S'IJH'
p49
S'ISHARES TRUST'
p50
tp51
a(S'IWF'
p52
S'ISHARES TRUST'
p53
tp54
a(S'AMP'
p55
S'AMERIPRISE FINANCIAL INC'
p56
tp57
a(S'TROW'
p58
S'T ROWE PRICE GROUP INC'
p59
tp60
a(S'IWD'
p61
S'ISHARES TRUST'
p62
tp63
a(S'AMTD'
p64
S'T D AMERITRADE HOLDING CORP'
p65
tp66
a(S'IVZ'
p67
S'INVESCO LTD'
p68
tp69
a(S'LQD'
p70
S'ISHARES TRUST'
p71
tp72
a(S'BX'
p73
S'BLACKSTONE GROUP L P'
p74
tp75
a(S'WFC'
p76
S'WELLS FARGO & CO NEW'
p77
tp78
a(S'JPM'
p79
S'JPMORGAN CHASE & CO'
p80
tp81
a(S'BAC'
p82
S'BANK OF AMERICA CORP'
p83
tp84
a(g4
S'CITIGROUP INC'
p85
tp86
a(S'V'
p87
S'VISA INC'
p88
tp89
a(S'AXP'
p90
S'AMERICAN EXPRESS CO'
p91
tp92
a(S'RY'
p93
S'ROYAL BANK CANADA MONTREAL QUE'
p94
tp95
a(S'MA'
p96
S'MASTERCARD INC'
p97
tp98
a(S'TD'
p99
S'TORONTO DOMINION BANK ONT'
p100
tp101
a(S'GS'
p102
S'GOLDMAN SACHS GROUP INC'
p103
tp104
a(S'BNS'
p105
S'BANK OF NOVA SCOTIA'
p106
tp107
a(S'USB'
p108
S'U S BANCORP DEL'
p109
tp110
a(S'UBS'
p111
S'U B S AG'
p112
tp113
a(S'DHR'
p114
S'DANAHER CORP'
p115
tp116
a(S'DB'
p117
S'DEUTSCHE BANK A G'
p118
tp119
a(S'BSMX'
p120
S'GROUPO FIN SANT MEX SAB DE CV'
p121
tp122
a(S'COF'
p123
S'CAPITAL ONE FINANCIAL CORP'
p124
tp125
a(S'BMO'
p126
S'BANK MONTREAL QUE'
p127
tp128
a(S'PNC'
p129
S'P N C FINANCIAL SERVICES GRP INC'
p130
tp131
a(S'BK'
p132
S'BANK OF NEW YORK MELLON CORP'
p133
tp134
a(S'CM'
p135
S'CANADIAN IMPERIAL BANK COMMERCE'
p136
tp137
a(S'STT'
p138
S'STATE STREET CORP'
p139
tp140
a(S'BBDO'
p141
S'BANCO BRADESCO S A'
p142
tp143
a(S'DFS'
p144
S'DISCOVER FINANCIAL SERVICES'
p145
tp146
a(S'BBT'
p147
S'B B & T CORP'
p148
tp149
a(g4
S'CITIGROUP INC'
p150
tp151
a(S'BRK'
p152
S'BERKSHIRE HATHAWAY INC DEL'
p153
tp154
a(S'BRK'
p155
S'BERKSHIRE HATHAWAY INC DEL'
p156
tp157
a(S'GS'
p158
S'GOLDMAN SACHS GROUP INC'
p159
tp160
a(S'UNH'
p161
S'UNITEDHEALTH GROUP INC'
p162
tp163
a(S'AIG'
p164
S'AMERICAN INTERNATIONAL GROUP INC'
p165
tp166
a(S'MET'
p167
S'METLIFE INC'
p168
tp169
a(S'PRU'
p170
S'PRUDENTIAL FINANCIAL INC'
p171
tp172
a(S'MFC'
p173
S'MANULIFE FINANCIAL CORP'
p174
tp175
a(S'ACE'
p176
S'ACE LTD NEW'
p177
tp178
a(S'TRV'
p179
S'TRAVELERS COMPANIES INC'
p180
tp181
a(S'AFL'
p182
S'A F L A C INC'
p183
tp184
a(S'WLP'
p185
S'WELLPOINT INC'
p186
tp187
a(S'MMC'
p188
S'MARSH & MCLENNAN COS INC'
p189
tp190
a(S'AON'
p191
S'AON PLC'
p192
tp193
a(S'AET'
p194
S'AETNA INC NEW'
p195
tp196
a(S'ALL'
p197
S'ALLSTATE CORP'
p198
tp199
a(S'CB'
p200
S'CHUBB CORP'
p201
tp202
a(S'CI'
p203
S'CIGNA CORP'
p204
tp205
a(S'SLF'
p206
S'SUN LIFE FINANCIAL INC'
p207
tp208
a(S'L'
p209
S'LOEWS CORP'
p210
tp211
a(S'LO'
p212
S'LORILLARD INC'
p213
tp214
a(S'PGR'
p215
S'PROGRESSIVE CORP OH'
p216
tp217
a(S'HIG'
p218
S'HARTFORD FINANCIAL SVCS GRP INC'
p219
tp220
a(S'HUM'
p221
S'HUMANA INC'
p222
tp223
a(L51106L
cdecimal
Decimal
p224
(S'47486000000.00'
p225
tp226
Rp227
tp228
a(L78080L
g224
(S'45399640000.00'
p229
tp230
Rp231
tp232
a(L40216L
g224
(S'38957000000.00'
p233
tp234
Rp235
tp236
a(L33364L
g224
(S'36470000000.00'
p237
tp238
Rp239
tp240
a(L90976L
g224
(S'34100000000.00'
p241
tp242
Rp243
tp244
a(L98665L
g224
(S'34056190000.00'
p245
tp246
Rp247
tp248
a(L78086L
g224
(S'32288750000.00'
p249
tp250
Rp251
tp252
a(L4062L
g224
(S'30800000000.00'
p253
tp254
Rp255
tp256
a(L40324L
g224
(S'24050150000.00'
p257
tp258
Rp259
tp260
a(L58119L
g224
(S'14617320000.00'
p261
tp262
Rp263
tp264
a(L54608L
g224
(S'13927220000.00'
p265
tp266
Rp267
tp268
a(L74457L
g224
(S'13679000000.00'
p269
tp270
Rp271
tp272
a(L82442L
g224
(S'12290000000.00'
p273
tp274
Rp275
tp276
a(L71436L
g224
(S'11024000000.00'
p277
tp278
Rp279
tp280
a(L2058L
g224
(S'10941000000.00'
p281
tp282
Rp283
tp284
a(L78443L
g224
(S'8099000000.00'
p285
tp286
Rp287
tp288
a(L72954L
g224
(S'8037000000.00'
p289
tp290
Rp291
tp292
a(L99314L
g224
(S'7434372355.82'
p293
tp294
Rp295
tp296
a(L3020L
g224
(S'7173000000.00'
p297
tp298
Rp299
tp300
a(L96255L
g224
(S'6274149000.00'
p301
tp302
Rp303
tp304
a(L96256L
g224
(S'6274149000.00'
p305
tp306
Rp307
tp308
a(L96257L
g224
(S'6274149000.00'
p309
tp310
Rp311
tp312
a(L96242L
g224
(S'5875706000.00'
p313
tp314
Rp315
tp316
a(L101817L
g224
(S'5762000000.00'
p317
tp318
Rp319
tp320
a(L101818L
g224
(S'5659000000.00'
p321
tp322
Rp323
tp324
a.