(lp0
S'2/28/2014'
p1
aS'1/31/2014'
p2
aS'12/31/2013'
p3
aS'11/30/2013'
p4
aS'10/31/2013'
p5
aS'9/30/2013'
p6
aS'8/31/2013'
p7
aS'7/31/2013'
p8
aS'6/30/2013'
p9
aS'5/31/2013'
p10
aS'4/30/2013'
p11
aS'3/31/2013'
p12
aS'2/28/2013'
p13
aS'1/31/2013'
p14
aS'12/31/2012'
p15
aS'11/30/2012'
p16
aS'10/31/2012'
p17
aS'9/30/2012'
p18
aS'8/31/2012'
p19
aS'7/31/2012'
p20
aS'6/30/2012'
p21
aS'5/31/2012'
p22
aS'4/30/2012'
p23
aS'3/31/2012'
p24
aS'2/29/2012'
p25
aS'1/31/2012'
p26
aS'12/31/2011'
p27
aS'11/30/2011'
p28
aS'10/31/2011'
p29
aS'9/30/2011'
p30
aS'8/31/2011'
p31
aS'7/31/2011'
p32
aS'6/30/2011'
p33
aS'5/31/2011'
p34
aS'4/30/2011'
p35
aS'3/31/2011'
p36
aS'2/28/2011'
p37
aS'1/31/2011'
p38
aS'12/31/2010'
p39
aS'11/30/2010'
p40
aS'10/31/2010'
p41
aS'9/30/2010'
p42
aS'8/31/2010'
p43
aS'7/31/2010'
p44
aS'6/30/2010'
p45
aS'5/31/2010'
p46
aS'4/30/2010'
p47
aS'3/31/2010'
p48
aS'2/28/2010'
p49
aS'1/31/2010'
p50
aS'12/31/2009'
p51
aS'11/30/2009'
p52
aS'10/31/2009'
p53
aS'9/30/2009'
p54
aS'8/31/2009'
p55
aS'7/31/2009'
p56
aS'6/30/2009'
p57
aS'5/31/2009'
p58
aS'4/30/2009'
p59
aS'3/31/2009'
p60
aS'2/28/2009'
p61
aS'1/31/2009'
p62
aS'12/31/2008'
p63
aS'11/30/2008'
p64
aS'10/31/2008'
p65
aS'9/30/2008'
p66
aS'8/31/2008'
p67
aS'7/31/2008'
p68
aS'6/30/2008'
p69
aS'5/31/2008'
p70
aS'4/30/2008'
p71
aS'3/31/2008'
p72
aS'2/29/2008'
p73
aS'1/31/2008'
p74
aS'12/31/2007'
p75
aS'11/30/2007'
p76
aS'10/31/2007'
p77
aS'9/30/2007'
p78
aS'8/31/2007'
p79
aS'7/31/2007'
p80
aS'6/30/2007'
p81
aS'5/31/2007'
p82
aS'4/30/2007'
p83
aS'3/31/2007'
p84
aS'2/28/2007'
p85
aS'1/31/2007'
p86
aS'12/31/2006'
p87
aS'11/30/2006'
p88
aS'10/31/2006'
p89
aS'9/30/2006'
p90
aS'8/31/2006'
p91
aS'7/31/2006'
p92
aS'6/30/2006'
p93
aS'5/31/2006'
p94
aS'4/30/2006'
p95
aS'3/31/2006'
p96
aS'2/28/2006'
p97
aS'1/31/2006'
p98
aS'12/31/2005'
p99
aS'11/30/2005'
p100
aS'10/31/2005'
p101
aS'9/30/2005'
p102
aS'8/31/2005'
p103
aS'7/31/2005'
p104
aS'6/30/2005'
p105
aS'5/31/2005'
p106
aS'4/30/2005'
p107
aS'3/31/2005'
p108
aS'2/28/2005'
p109
aS'1/31/2005'
p110
aS'12/31/2004'
p111
aS'11/30/2004'
p112
aS'10/31/2004'
p113
aS'9/30/2004'
p114
aS'8/31/2004'
p115
aS'7/31/2004'
p116
aS'6/30/2004'
p117
aS'5/31/2004'
p118
aS'4/30/2004'
p119
aS'3/31/2004'
p120
aS'2/29/2004'
p121
aS'1/31/2004'
p122
aS'12/31/2003'
p123
aS'11/30/2003'
p124
aS'10/31/2003'
p125
aS'9/30/2003'
p126
aS'8/31/2003'
p127
aS'7/31/2003'
p128
aS'6/30/2003'
p129
aS'5/31/2003'
p130
aS'4/30/2003'
p131
aS'3/31/2003'
p132
aS'2/28/2003'
p133
aS'1/31/2003'
p134
aS'12/31/2002'
p135
aS'11/30/2002'
p136
aS'10/31/2002'
p137
aS'9/30/2002'
p138
aS'8/31/2002'
p139
aS'7/31/2002'
p140
aS'6/30/2002'
p141
aS'5/31/2002'
p142
aS'4/30/2002'
p143
aS'3/31/2002'
p144
aS'2/28/2002'
p145
aS'1/31/2002'
p146
aS'12/31/2001'
p147
aS'11/30/2001'
p148
aS'10/31/2001'
p149
aS'9/30/2001'
p150
aS'8/31/2001'
p151
aS'7/31/2001'
p152
aS'6/30/2001'
p153
aS'5/31/2001'
p154
aS'4/30/2001'
p155
aS'3/31/2001'
p156
aS'2/28/2001'
p157
aS'1/31/2001'
p158
aS'12/31/2000'
p159
aS'11/30/2000'
p160
aS'10/31/2000'
p161
aS'9/30/2000'
p162
aS'8/31/2000'
p163
aS'7/31/2000'
p164
aS'6/30/2000'
p165
aS'5/31/2000'
p166
aS'4/30/2000'
p167
aS'3/31/2000'
p168
aS'2/29/2000'
p169
aS'1/31/2000'
p170
aS'12/31/1999'
p171
aS'11/30/1999'
p172
aS'10/31/1999'
p173
aS'9/30/1999'
p174
aS'8/31/1999'
p175
aS'7/31/1999'
p176
aS'6/30/1999'
p177
aS'5/31/1999'
p178
aS'4/30/1999'
p179
aS'3/31/1999'
p180
aS'2/28/1999'
p181
aS'1/31/1999'
p182
aS'12/31/1998'
p183
aS'11/30/1998'
p184
aS'10/31/1998'
p185
aS'9/30/1998'
p186
aS'8/31/1998'
p187
aS'7/31/1998'
p188
aS'6/30/1998'
p189
aS'5/31/1998'
p190
aS'4/30/1998'
p191
aS'3/31/1998'
p192
aS'2/28/1998'
p193
aS'1/31/1998'
p194
aS'12/31/1997'
p195
aS'11/30/1997'
p196
aS'10/31/1997'
p197
aS'9/30/1997'
p198
aS'8/31/1997'
p199
aS'7/31/1997'
p200
aS'6/30/1997'
p201
aS'5/31/1997'
p202
aS'4/30/1997'
p203
aS'3/31/1997'
p204
aS'2/28/1997'
p205
aS'1/31/1997'
p206
aS'12/31/1996'
p207
aS'11/30/1996'
p208
aS'10/31/1996'
p209
aS'9/30/1996'
p210
aS'8/31/1996'
p211
aS'7/31/1996'
p212
aS'6/30/1996'
p213
aS'5/31/1996'
p214
aS'4/30/1996'
p215
aS'3/31/1996'
p216
aS'2/29/1996'
p217
aS'1/31/1996'
p218
aS'12/31/1995'
p219
aS'11/30/1995'
p220
aS'10/31/1995'
p221
aS'9/30/1995'
p222
aS'8/31/1995'
p223
aS'7/31/1995'
p224
aS'6/30/1995'
p225
aS'5/31/1995'
p226
aS'4/30/1995'
p227
aS'3/31/1995'
p228
aS'2/28/1995'
p229
aS'1/31/1995'
p230
aS'12/31/1994'
p231
aS'11/30/1994'
p232
aS'10/31/1994'
p233
aS'9/30/1994'
p234
aS'8/31/1994'
p235
aS'7/31/1994'
p236
aS'6/30/1994'
p237
aS'5/31/1994'
p238
aS'4/30/1994'
p239
aS'3/31/1994'
p240
aS'2/28/1994'
p241
aS'1/31/1994'
p242
aS'12/31/1993'
p243
a.