(dp0
S'Credit Suisse Emerging Markets Hedge Fund Index'
p1
(lp2
(S'426.53'
p3
S'1.79%'
p4
tp5
a(S'419.01'
p6
S'-2.27%'
p7
tp8
a(S'428.76'
p9
S'1.28%'
p10
tp11
a(S'423.33'
p12
S'1.08%'
p13
tp14
a(S'418.79'
p15
S'2.01%'
p16
tp17
a(S'410.52'
p18
S'1.28%'
p19
tp20
a(S'405.34'
p21
S'-0.24%'
p22
tp23
a(S'406.32'
p24
S'-0.09%'
p25
tp26
a(S'406.69'
p27
S'-2.64%'
p28
tp29
a(S'417.71'
p30
S'-0.20%'
p31
tp32
a(S'418.55'
p33
S'1.62%'
p34
tp35
a(S'411.86'
p36
S'0.55%'
p37
tp38
a(S'409.62'
p39
S'0.49%'
p40
tp41
a(S'407.63'
p42
S'3.45%'
p43
tp44
a(S'394.03'
p45
S'2.38%'
p46
tp47
a(S'384.88'
p48
S'1.10%'
p49
tp50
a(S'380.7'
p51
S'0.35%'
p52
tp53
a(S'379.37'
p54
S'2.21%'
p55
tp56
a(S'371.16'
p57
S'0.84%'
p58
tp59
a(S'368.05'
p60
S'0.96%'
p61
tp62
a(S'364.54'
p63
S'-0.13%'
p64
tp65
a(S'365.03'
p66
S'-3.79%'
p67
tp68
a(S'379.4'
p69
S'0.15%'
p70
tp71
a(S'378.82'
p72
S'-0.70%'
p73
tp74
a(S'381.49'
p75
S'2.92%'
p76
tp77
a(S'370.67'
p78
S'3.74%'
p79
tp80
a(S'357.31'
p81
S'-0.70%'
p82
tp83
a(S'359.83'
p84
S'-2.69%'
p85
tp86
a(S'369.76'
p87
S'3.70%'
p88
tp89
a(S'356.55'
p90
S'-7.47%'
p91
tp92
a(S'385.33'
p93
S'-3.15%'
p94
tp95
a(S'397.87'
p96
S'1.67%'
p97
tp98
a(S'391.34'
p99
S'-0.65%'
p100
tp101
a(S'393.9'
p102
S'-1.10%'
p103
tp104
a(S'398.3'
p105
S'2.32%'
p106
tp107
a(S'389.26'
p108
S'2.12%'
p109
tp110
a(S'381.17'
p111
S'-0.07%'
p112
tp113
a(S'381.42'
p114
S'-0.39%'
p115
tp116
a(S'382.9'
p117
S'1.50%'
p118
tp119
a(S'377.23'
p120
S'-0.38%'
p121
tp122
a(S'378.65'
p123
S'2.21%'
p124
tp125
a(S'370.46'
p126
S'4.77%'
p127
tp128
a(S'353.58'
p129
S'0.12%'
p130
tp131
a(S'353.15'
p132
S'3.52%'
p133
tp134
a(S'341.14'
p135
S'-0.03%'
p136
tp137
a(S'341.24'
p138
S'-4.28%'
p139
tp140
a(S'356.51'
p141
S'1.01%'
p142
tp143
a(S'352.95'
p144
S'3.89%'
p145
tp146
a(S'339.75'
p147
S'-0.45%'
p148
tp149
a(S'341.28'
p150
S'-0.76%'
p151
tp152
a(S'343.91'
p153
S'1.97%'
p154
tp155
a(S'337.25'
p156
S'1.37%'
p157
tp158
a(S'332.7'
p159
S'0.90%'
p160
tp161
a(S'329.73'
p162
S'4.94%'
p163
tp164
a(S'314.2'
p165
S'1.06%'
p166
tp167
a(S'310.89'
p168
S'3.83%'
p169
tp170
a(S'299.42'
p171
S'0.69%'
p172
tp173
a(S'297.37'
p174
S'6.96%'
p175
tp176
a(S'278.03'
p177
S'5.17%'
p178
tp179
a(S'264.36'
p180
S'2.24%'
p181
tp182
a(S'258.57'
p183
S'-2.10%'
p184
tp185
a(S'264.12'
p186
S'-0.14%'
p187
tp188
a(S'264.49'
p189
S'0.22%'
p190
tp191
a(S'263.92'
p192
S'-1.87%'
p193
tp194
a(S'268.95'
p195
S'-13.63%'
p196
tp197
a(S'311.39'
p198
S'-8.93%'
p199
tp200
a(S'341.94'
p201
S'-4.00%'
p202
tp203
a(S'356.17'
p204
S'-2.84%'
p205
tp206
a(S'366.58'
p207
S'-1.59%'
p208
tp209
a(S'372.5'
p210
S'2.14%'
p211
tp212
a(S'364.71'
p213
S'0.17%'
p214
tp215
a(S'364.09'
p216
S'-3.30%'
p217
tp218
a(S'376.5'
p219
S'1.78%'
p220
tp221
a(S'369.91'
p222
S'-2.67%'
p223
tp224
a(S'380.07'
p225
S'1.32%'
p226
tp227
a(S'375.13'
p228
S'-1.85%'
p229
tp230
a(S'382.21'
p231
S'5.48%'
p232
tp233
a(S'362.34'
p234
S'4.77%'
p235
tp236
a(S'345.83'
p237
S'-2.37%'
p238
tp239
a(S'354.22'
p240
S'2.55%'
p241
tp242
a(S'345.4'
p243
S'1.83%'
p244
tp245
a(S'339.19'
p246
S'1.72%'
p247
tp248
a(S'333.44'
p249
S'2.24%'
p250
tp251
a(S'326.14'
p252
S'1.96%'
p253
tp254
a(S'319.87'
p255
S'1.13%'
p256
tp257
a(S'316.29'
p258
S'0.08%'
p259
tp260
a(S'316.03'
p261
S'2.84%'
p262
tp263
a(S'307.29'
p264
S'3.15%'
p265
tp266
a(S'297.9'
p267
S'2.86%'
p268
tp269
a(S'289.61'
p270
S'-0.45%'
p271
tp272
a(S'290.91'
p273
S'1.42%'
p274
tp275
a(S'286.84'
p276
S'1.99%'
p277
tp278
a(S'281.24'
p279
S'-0.14%'
p280
tp281
a(S'281.64'
p282
S'-5.02%'
p283
tp284
a(S'296.51'
p285
S'3.82%'
p286
tp287
a(S'285.6'
p288
S'1.37%'
p289
tp290
a(S'281.73'
p291
S'1.56%'
p292
tp293
a(S'277.4'
p294
S'5.76%'
p295
tp296
a(S'262.28'
p297
S'2.44%'
p298
tp299
a(S'256.03'
p300
S'2.43%'
p301
tp302
a(S'249.96'
p303
S'-2.78%'
p304
tp305
a(S'257.11'
p306
S'4.12%'
p307
tp308
a(S'246.93'
p309
S'2.29%'
p310
tp311
a(S'241.4'
p312
S'2.30%'
p313
tp314
a(S'235.98'
p315
S'2.01%'
p316
tp317
a(S'231.34'
p318
S'0.67%'
p319
tp320
a(S'229.79'
p321
S'0.28%'
p322
tp323
a(S'229.14'
p324
S'-1.88%'
p325
tp326
a(S'233.52'
p327
S'3.35%'
p328
tp329
a(S'225.95'
p330
S'1.13%'
p331
tp332
a(S'223.43'
p333
S'1.39%'
p334
tp335
a(S'220.36'
p336
S'2.69%'
p337
tp338
a(S'214.59'
p339
S'2.40%'
p340
tp341
a(S'209.57'
p342
S'2.33%'
p343
tp344
a(S'204.79'
p345
S'1.83%'
p346
tp347
a(S'201.1'
p348
S'-0.14%'
p349
tp350
a(S'201.38'
p351
S'0.87%'
p352
tp353
a(S'199.64'
p354
S'-1.81%'
p355
tp356
a(S'203.31'
p357
S'-3.31%'
p358
tp359
a(S'210.27'
p360
S'1.83%'
p361
tp362
a(S'206.5'
p363
S'1.39%'
p364
tp365
a(S'203.66'
p366
S'2.53%'
p367
tp368
a(S'198.63'
p369
S'3.56%'
p370
tp371
a(S'191.8'
p372
S'1.17%'
p373
tp374
a(S'189.58'
p375
S'2.25%'
p376
tp377
a(S'185.4'
p378
S'2.65%'
p379
tp380
a(S'180.61'
p381
S'2.98%'
p382
tp383
a(S'175.38'
p384
S'0.56%'
p385
tp386
a(S'174.41'
p387
S'2.02%'
p388
tp389
a(S'170.95'
p390
S'5.01%'
p391
tp392
a(S'162.79'
p393
S'3.89%'
p394
tp395
a(S'156.7'
p396
S'1.00%'
p397
tp398
a(S'155.15'
p399
S'1.02%'
p400
tp401
a(S'153.58'
p402
S'-0.45%'
p403
tp404
a(S'154.27'
p405
S'-0.53%'
p406
tp407
a(S'155.09'
p408
S'2.24%'
p409
tp410
a(S'151.69'
p411
S'2.38%'
p412
tp413
a(S'148.16'
p414
S'-1.98%'
p415
tp416
a(S'151.15'
p417
S'1.26%'
p418
tp419
a(S'149.27'
p420
S'-1.19%'
p421
tp422
a(S'151.07'
p423
S'-3.75%'
p424
tp425
a(S'156.96'
p426
S'-0.73%'
p427
tp428
a(S'158.12'
p429
S'0.12%'
p430
tp431
a(S'157.93'
p432
S'3.95%'
p433
tp434
a(S'151.93'
p435
S'2.89%'
p436
tp437
a(S'147.66'
p438
S'2.76%'
p439
tp440
a(S'143.7'
p441
S'4.82%'
p442
tp443
a(S'137.09'
p444
S'3.96%'
p445
tp446
a(S'131.87'
p447
S'2.19%'
p448
tp449
a(S'129.05'
p450
S'-4.38%'
p451
tp452
a(S'134.96'
p453
S'-1.08%'
p454
tp455
a(S'136.44'
p456
S'-2.95%'
p457
tp458
a(S'140.59'
p459
S'1.63%'
p460
tp461
a(S'138.33'
p462
S'2.39%'
p463
tp464
a(S'135.1'
p465
S'-0.52%'
p466
tp467
a(S'135.8'
p468
S'-1.29%'
p469
tp470
a(S'137.57'
p471
S'-2.89%'
p472
tp473
a(S'141.67'
p474
S'4.35%'
p475
tp476
a(S'135.77'
p477
S'2.32%'
p478
tp479
a(S'132.69'
p480
S'-3.64%'
p481
tp482
a(S'137.7'
p483
S'-2.47%'
p484
tp485
a(S'141.19'
p486
S'-6.79%'
p487
tp488
a(S'151.48'
p489
S'4.32%'
p490
tp491
a(S'145.21'
p492
S'0.58%'
p493
tp494
a(S'144.37'
p495
S'5.53%'
p496
tp497
a(S'136.8'
p498
S'-4.13%'
p499
tp500
a(S'142.7'
p501
S'-7.76%'
p502
tp503
a(S'154.71'
p504
S'3.10%'
p505
tp506
a(S'150.06'
p507
S'6.04%'
p508
tp509
a(S'141.51'
p510
S'-1.52%'
p511
tp512
a(S'143.7'
p513
S'15.34%'
p514
tp515
a(S'124.59'
p516
S'9.29%'
p517
tp518
a(S'114'
p519
S'3.66%'
p520
tp521
a(S'109.98'
p522
S'-0.65%'
p523
tp524
a(S'110.7'
p525
S'-2.66%'
p526
tp527
a(S'113.73'
p528
S'-1.55%'
p529
tp530
a(S'115.52'
p531
S'4.90%'
p532
tp533
a(S'110.12'
p534
S'-1.23%'
p535
tp536
a(S'111.49'
p537
S'6.49%'
p538
tp539
a(S'104.7'
p540
S'7.43%'
p541
tp542
a(S'97.46'
p543
S'1.17%'
p544
tp545
a(S'96.33'
p546
S'-2.92%'
p547
tp548
a(S'99.23'
p549
S'-3.84%'
p550
tp551
a(S'103.19'
p552
S'4.68%'
p553
tp554
a(S'98.58'
p555
S'1.68%'
p556
tp557
a(S'96.95'
p558
S'-7.40%'
p559
tp560
a(S'104.7'
p561
S'-23.03%'
p562
tp563
a(S'136.02'
p564
S'0.08%'
p565
tp566
a(S'135.91'
p567
S'-4.68%'
p568
tp569
a(S'142.58'
p570
S'-9.78%'
p571
tp572
a(S'158.03'
p573
S'-0.18%'
p574
tp575
a(S'158.31'
p576
S'3.63%'
p577
tp578
a(S'152.77'
p579
S'2.00%'
p580
tp581
a(S'149.78'
p582
S'-5.90%'
p583
tp584
a(S'159.17'
p585
S'4.30%'
p586
tp587
a(S'152.61'
p588
S'-4.76%'
p589
tp590
a(S'160.23'
p591
S'-7.86%'
p592
tp593
a(S'173.89'
p594
S'2.78%'
p595
tp596
a(S'169.18'
p597
S'-3.65%'
p598
tp599
a(S'175.58'
p600
S'6.46%'
p601
tp602
a(S'164.93'
p603
S'6.81%'
p604
tp605
a(S'154.41'
p606
S'2.97%'
p607
tp608
a(S'149.96'
p609
S'1.97%'
p610
tp611
a(S'147.07'
p612
S'-0.78%'
p613
tp614
a(S'148.22'
p615
S'7.69%'
p616
tp617
a(S'137.63'
p618
S'9.46%'
p619
tp620
a(S'125.74'
p621
S'2.43%'
p622
tp623
a(S'122.76'
p624
S'2.60%'
p625
tp626
a(S'119.65'
p627
S'1.70%'
p628
tp629
a(S'117.65'
p630
S'1.57%'
p631
tp632
a(S'115.83'
p633
S'3.56%'
p634
tp635
a(S'111.85'
p636
S'-2.68%'
p637
tp638
a(S'114.93'
p639
S'5.36%'
p640
tp641
a(S'109.08'
p642
S'4.51%'
p643
tp644
a(S'104.37'
p645
S'5.06%'
p646
tp647
a(S'99.34'
p648
S'-0.93%'
p649
tp650
a(S'100.27'
p651
S'-0.57%'
p652
tp653
a(S'100.84'
p654
S'7.86%'
p655
tp656
a(S'93.49'
p657
S'0.74%'
p658
tp659
a(S'92.8'
p660
S'-3.13%'
p661
tp662
a(S'95.8'
p663
S'-5.66%'
p664
tp665
a(S'101.55'
p666
S'1.88%'
p667
tp668
a(S'99.68'
p669
S'0.98%'
p670
tp671
a(S'98.71'
p672
S'2.22%'
p673
tp674
a(S'96.57'
p675
S'0.78%'
p676
tp677
a(S'95.82'
p678
S'1.34%'
p679
tp680
a(S'94.55'
p681
S'7.25%'
p682
tp683
a(S'88.16'
p684
S'-5.51%'
p685
tp686
a(S'93.3'
p687
S'-7.88%'
p688
tp689
a(S'101.28'
p690
S'-9.98%'
p691
tp692
a(S'112.51'
p693
S'-4.21%'
p694
tp695
a(S'117.45'
p696
S'-1.42%'
p697
tp698
a(S'119.14'
p699
S'-3.51%'
p700
tp701
a(S'123.47'
p702
S'5.20%'
p703
tp704
a(S'117.37'
p705
S'16.42%'
p706
tp707
a(S'100.82'
p708
S'5.81%'
p709
tp710
a(S'95.28'
p711
S'0.47%'
p712
tp713
a(S'94.83'
p714
S'-0.73%'
p715
tp716
a(S'95.53'
p717
S'-8.36%'
p718
tp719
a(S'104.24'
p720
S'-4.61%'
p721
tp722
a(S'109.28'
p723
S'-1.14%'
p724
tp725
a(S'110.54'
p726
S'10.54%'
p727
tp728
a(S'100'
p729
S'0.00%'
p730
tp731
asS'Credit Suisse Event Driven Multi-Strategy Hedge Fund Index'
p732
(lp733
(S'587.74'
p734
S'3.08%'
p735
tp736
a(S'570.18'
p737
S'0.24%'
p738
tp739
a(S'568.84'
p740
S'1.47%'
p741
tp742
a(S'560.62'
p743
S'1.74%'
p744
tp745
a(S'551.01'
p746
S'1.41%'
p747
tp748
a(S'543.34'
p749
S'1.49%'
p750
tp751
a(S'535.36'
p752
S'0.16%'
p753
tp754
a(S'534.49'
p755
S'1.61%'
p756
tp757
a(S'526.02'
p758
S'-1.53%'
p759
tp760
a(S'534.2'
p761
S'2.23%'
p762
tp763
a(S'522.53'
p764
S'1.13%'
p765
tp766
a(S'516.69'
p767
S'2.08%'
p768
tp769
a(S'506.15'
p770
S'0.19%'
p771
tp772
a(S'505.21'
p773
S'2.39%'
p774
tp775
a(S'493.43'
p776
S'2.01%'
p777
tp778
a(S'483.71'
p779
S'0.31%'
p780
tp781
a(S'482.22'
p782
S'0.88%'
p783
tp784
a(S'478.03'
p785
S'1.62%'
p786
tp787
a(S'470.4'
p788
S'1.32%'
p789
tp790
a(S'464.26'
p791
S'0.66%'
p792
tp793
a(S'461.23'
p794
S'-0.16%'
p795
tp796
a(S'461.99'
p797
S'-1.36%'
p798
tp799
a(S'468.37'
p800
S'-0.41%'
p801
tp802
a(S'470.28'
p803
S'0.45%'
p804
tp805
a(S'468.19'
p806
S'1.43%'
p807
tp808
a(S'461.58'
p809
S'3.03%'
p810
tp811
a(S'448.02'
p812
S'-1.25%'
p813
tp814
a(S'453.68'
p815
S'-0.97%'
p816
tp817
a(S'458.13'
p818
S'2.90%'
p819
tp820
a(S'445.23'
p821
S'-6.15%'
p822
tp823
a(S'474.4'
p824
S'-5.98%'
p825
tp826
a(S'504.58'
p827
S'-1.07%'
p828
tp829
a(S'510.05'
p830
S'-3.08%'
p831
tp832
a(S'526.26'
p833
S'-0.98%'
p834
tp835
a(S'531.46'
p836
S'1.13%'
p837
tp838
a(S'525.51'
p839
S'-0.37%'
p840
tp841
a(S'527.45'
p842
S'1.88%'
p843
tp844
a(S'517.74'
p845
S'1.74%'
p846
tp847
a(S'508.88'
p848
S'4.78%'
p849
tp850
a(S'485.66'
p851
S'0.04%'
p852
tp853
a(S'485.48'
p854
S'2.17%'
p855
tp856
a(S'475.17'
p857
S'4.03%'
p858
tp859
a(S'456.76'
p860
S'-0.24%'
p861
tp862
a(S'457.84'
p863
S'1.90%'
p864
tp865
a(S'449.3'
p866
S'-1.97%'
p867
tp868
a(S'458.31'
p869
S'-3.53%'
p870
tp871
a(S'475.1'
p872
S'2.09%'
p873
tp874
a(S'465.39'
p875
S'3.07%'
p876
tp877
a(S'451.54'
p878
S'0.57%'
p879
tp880
a(S'449'
p881
S'0.90%'
p882
tp883
a(S'445'
p884
S'2.13%'
p885
tp886
a(S'435.72'
p887
S'2.26%'
p888
tp889
a(S'426.1'
p890
S'0.21%'
p891
tp892
a(S'425.21'
p893
S'2.52%'
p894
tp895
a(S'414.76'
p896
S'2.23%'
p897
tp898
a(S'405.7'
p899
S'2.41%'
p900
tp901
a(S'396.14'
p902
S'0.71%'
p903
tp904
a(S'393.34'
p905
S'4.31%'
p906
tp907
a(S'377.09'
p908
S'1.27%'
p909
tp910
a(S'372.35'
p911
S'0.16%'
p912
tp913
a(S'371.75'
p914
S'-1.12%'
p915
tp916
a(S'375.97'
p917
S'1.33%'
p918
tp919
a(S'371.03'
p920
S'-0.49%'
p921
tp922
a(S'372.86'
p923
S'-2.17%'
p924
tp925
a(S'381.13'
p926
S'-4.77%'
p927
tp928
a(S'400.2'
p929
S'-6.17%'
p930
tp931
a(S'426.53'
p932
S'-0.20%'
p933
tp934
a(S'427.38'
p935
S'-2.53%'
p936
tp937
a(S'438.47'
p938
S'0.09%'
p939
tp940
a(S'438.08'
p941
S'2.20%'
p942
tp943
a(S'428.67'
p944
S'0.68%'
p945
tp946
a(S'425.78'
p947
S'-2.21%'
p948
tp949
a(S'435.41'
p950
S'1.26%'
p951
tp952
a(S'429.98'
p953
S'-2.94%'
p954
tp955
a(S'443.01'
p956
S'0.50%'
p957
tp958
a(S'440.8'
p959
S'-1.94%'
p960
tp961
a(S'449.51'
p962
S'3.84%'
p963
tp964
a(S'432.89'
p965
S'1.82%'
p966
tp967
a(S'425.17'
p968
S'-2.03%'
p969
tp970
a(S'433.99'
p971
S'1.80%'
p972
tp973
a(S'426.31'
p974
S'0.61%'
p975
tp976
a(S'423.72'
p977
S'4.31%'
p978
tp979
a(S'406.22'
p980
S'1.44%'
p981
tp982
a(S'400.47'
p983
S'1.26%'
p984
tp985
a(S'395.49'
p986
S'1.81%'
p987
tp988
a(S'388.44'
p989
S'2.43%'
p990
tp991
a(S'379.22'
p992
S'1.59%'
p993
tp994
a(S'373.3'
p995
S'2.39%'
p996
tp997
a(S'364.6'
p998
S'2.08%'
p999
tp1000
a(S'357.16'
p1001
S'0.69%'
p1002
tp1003
a(S'354.72'
p1004
S'1.03%'
p1005
tp1006
a(S'351.11'
p1007
S'0.11%'
p1008
tp1009
a(S'350.74'
p1010
S'0.78%'
p1011
tp1012
a(S'348.03'
p1013
S'-0.43%'
p1014
tp1015
a(S'349.55'
p1016
S'2.01%'
p1017
tp1018
a(S'342.65'
p1019
S'1.35%'
p1020
tp1021
a(S'338.09'
p1022
S'0.43%'
p1023
tp1024
a(S'336.65'
p1025
S'3.32%'
p1026
tp1027
a(S'325.84'
p1028
S'1.27%'
p1029
tp1030
a(S'321.74'
p1031
S'1.03%'
p1032
tp1033
a(S'318.47'
p1034
S'-3.10%'
p1035
tp1036
a(S'328.66'
p1037
S'1.00%'
p1038
tp1039
a(S'325.4'
p1040
S'0.76%'
p1041
tp1042
a(S'322.95'
p1043
S'2.85%'
p1044
tp1045
a(S'314.01'
p1046
S'1.38%'
p1047
tp1048
a(S'309.73'
p1049
S'0.89%'
p1050
tp1051
a(S'306.99'
p1052
S'-1.12%'
p1053
tp1054
a(S'310.46'
p1055
S'0.54%'
p1056
tp1057
a(S'308.8'
p1058
S'1.68%'
p1059
tp1060
a(S'303.7'
p1061
S'-0.07%'
p1062
tp1063
a(S'303.92'
p1064
S'2.62%'
p1065
tp1066
a(S'296.15'
p1067
S'3.88%'
p1068
tp1069
a(S'285.08'
p1070
S'0.73%'
p1071
tp1072
a(S'283'
p1073
S'1.35%'
p1074
tp1075
a(S'279.24'
p1076
S'0.38%'
p1077
tp1078
a(S'278.19'
p1079
S'-0.34%'
p1080
tp1081
a(S'279.13'
p1082
S'0.93%'
p1083
tp1084
a(S'276.55'
p1085
S'-0.09%'
p1086
tp1087
a(S'276.79'
p1088
S'0.47%'
p1089
tp1090
a(S'275.5'
p1091
S'0.29%'
p1092
tp1093
a(S'274.71'
p1094
S'1.05%'
p1095
tp1096
a(S'271.86'
p1097
S'2.01%'
p1098
tp1099
a(S'266.51'
p1100
S'1.29%'
p1101
tp1102
a(S'263.11'
p1103
S'1.34%'
p1104
tp1105
a(S'259.63'
p1106
S'1.10%'
p1107
tp1108
a(S'256.81'
p1109
S'1.47%'
p1110
tp1111
a(S'253.08'
p1112
S'0.64%'
p1113
tp1114
a(S'251.48'
p1115
S'0.81%'
p1116
tp1117
a(S'249.47'
p1118
S'1.28%'
p1119
tp1120
a(S'246.32'
p1121
S'2.37%'
p1122
tp1123
a(S'240.61'
p1124
S'2.03%'
p1125
tp1126
a(S'235.82'
p1127
S'1.05%'
p1128
tp1129
a(S'233.37'
p1130
S'0.63%'
p1131
tp1132
a(S'231.92'
p1133
S'1.98%'
p1134
tp1135
a(S'227.42'
p1136
S'0.93%'
p1137
tp1138
a(S'225.32'
p1139
S'2.05%'
p1140
tp1141
a(S'220.8'
p1142
S'0.10%'
p1143
tp1144
a(S'220.59'
p1145
S'-0.12%'
p1146
tp1147
a(S'220.86'
p1148
S'0.44%'
p1149
tp1150
a(S'219.89'
p1151
S'-2.39%'
p1152
tp1153
a(S'225.27'
p1154
S'-2.62%'
p1155
tp1156
a(S'231.34'
p1157
S'0.09%'
p1158
tp1159
a(S'231.14'
p1160
S'0.63%'
p1161
tp1162
a(S'229.7'
p1163
S'1.18%'
p1164
tp1165
a(S'227.01'
p1166
S'-0.04%'
p1167
tp1168
a(S'227.1'
p1169
S'1.08%'
p1170
tp1171
a(S'224.67'
p1172
S'0.78%'
p1173
tp1174
a(S'222.94'
p1175
S'0.91%'
p1176
tp1177
a(S'220.94'
p1178
S'0.90%'
p1179
tp1180
a(S'218.97'
p1181
S'-1.88%'
p1182
tp1183
a(S'223.17'
p1184
S'1.81%'
p1185
tp1186
a(S'219.21'
p1187
S'0.14%'
p1188
tp1189
a(S'218.91'
p1190
S'0.11%'
p1191
tp1192
a(S'218.68'
p1193
S'0.28%'
p1194
tp1195
a(S'218.06'
p1196
S'0.93%'
p1197
tp1198
a(S'216.06'
p1199
S'-0.85%'
p1200
tp1201
a(S'217.91'
p1202
S'1.34%'
p1203
tp1204
a(S'215.02'
p1205
S'2.20%'
p1206
tp1207
a(S'210.39'
p1208
S'0.50%'
p1209
tp1210
a(S'209.34'
p1211
S'-0.68%'
p1212
tp1213
a(S'210.77'
p1214
S'-0.05%'
p1215
tp1216
a(S'210.87'
p1217
S'1.29%'
p1218
tp1219
a(S'208.18'
p1220
S'1.69%'
p1221
tp1222
a(S'204.73'
p1223
S'0.97%'
p1224
tp1225
a(S'202.76'
p1226
S'1.92%'
p1227
tp1228
a(S'198.95'
p1229
S'-0.03%'
p1230
tp1231
a(S'199.01'
p1232
S'-0.49%'
p1233
tp1234
a(S'199.98'
p1235
S'1.18%'
p1236
tp1237
a(S'197.64'
p1238
S'4.38%'
p1239
tp1240
a(S'189.34'
p1241
S'0.65%'
p1242
tp1243
a(S'188.11'
p1244
S'4.66%'
p1245
tp1246
a(S'179.74'
p1247
S'2.73%'
p1248
tp1249
a(S'174.96'
p1250
S'0.96%'
p1251
tp1252
a(S'173.3'
p1253
S'0.11%'
p1254
tp1255
a(S'173.11'
p1256
S'-0.05%'
p1257
tp1258
a(S'173.19'
p1259
S'0.67%'
p1260
tp1261
a(S'172.03'
p1262
S'3.57%'
p1263
tp1264
a(S'166.1'
p1265
S'1.86%'
p1266
tp1267
a(S'163.07'
p1268
S'2.97%'
p1269
tp1270
a(S'158.37'
p1271
S'1.81%'
p1272
tp1273
a(S'155.56'
p1274
S'-0.06%'
p1275
tp1276
a(S'155.66'
p1277
S'1.78%'
p1278
tp1279
a(S'152.94'
p1280
S'1.89%'
p1281
tp1282
a(S'150.11'
p1283
S'2.41%'
p1284
tp1285
a(S'146.58'
p1286
S'0.26%'
p1287
tp1288
a(S'146.2'
p1289
S'-4.74%'
p1290
tp1291
a(S'153.47'
p1292
S'-11.52%'
p1293
tp1294
a(S'173.46'
p1295
S'-0.27%'
p1296
tp1297
a(S'173.93'
p1298
S'-2.01%'
p1299
tp1300
a(S'177.49'
p1301
S'-1.10%'
p1302
tp1303
a(S'179.47'
p1304
S'0.90%'
p1305
tp1306
a(S'177.87'
p1307
S'3.82%'
p1308
tp1309
a(S'171.33'
p1310
S'2.17%'
p1311
tp1312
a(S'167.69'
p1313
S'-0.20%'
p1314
tp1315
a(S'168.03'
p1316
S'2.98%'
p1317
tp1318
a(S'163.16'
p1319
S'0.97%'
p1320
tp1321
a(S'161.6'
p1322
S'-0.05%'
p1323
tp1324
a(S'161.68'
p1325
S'2.27%'
p1326
tp1327
a(S'158.09'
p1328
S'0.13%'
p1329
tp1330
a(S'157.89'
p1331
S'3.93%'
p1332
tp1333
a(S'151.92'
p1334
S'2.08%'
p1335
tp1336
a(S'148.82'
p1337
S'2.68%'
p1338
tp1339
a(S'144.93'
p1340
S'0.48%'
p1341
tp1342
a(S'144.24'
p1343
S'0.08%'
p1344
tp1345
a(S'144.13'
p1346
S'1.03%'
p1347
tp1348
a(S'142.66'
p1349
S'2.33%'
p1350
tp1351
a(S'139.41'
p1352
S'1.70%'
p1353
tp1354
a(S'137.08'
p1355
S'1.89%'
p1356
tp1357
a(S'134.54'
p1358
S'1.19%'
p1359
tp1360
a(S'132.96'
p1361
S'1.68%'
p1362
tp1363
a(S'130.76'
p1364
S'1.86%'
p1365
tp1366
a(S'128.37'
p1367
S'0.60%'
p1368
tp1369
a(S'127.61'
p1370
S'1.48%'
p1371
tp1372
a(S'125.75'
p1373
S'2.34%'
p1374
tp1375
a(S'122.88'
p1376
S'2.58%'
p1377
tp1378
a(S'119.79'
p1379
S'1.29%'
p1380
tp1381
a(S'118.26'
p1382
S'0.57%'
p1383
tp1384
a(S'117.59'
p1385
S'3.50%'
p1386
tp1387
a(S'113.61'
p1388
S'1.02%'
p1389
tp1390
a(S'112.46'
p1391
S'0.70%'
p1392
tp1393
a(S'111.68'
p1394
S'0.86%'
p1395
tp1396
a(S'110.73'
p1397
S'2.55%'
p1398
tp1399
a(S'107.98'
p1400
S'2.59%'
p1401
tp1402
a(S'105.25'
p1403
S'0.71%'
p1404
tp1405
a(S'104.51'
p1406
S'-0.07%'
p1407
tp1408
a(S'104.58'
p1409
S'0.48%'
p1410
tp1411
a(S'104.08'
p1412
S'2.44%'
p1413
tp1414
a(S'101.6'
p1415
S'-1.23%'
p1416
tp1417
a(S'102.87'
p1418
S'1.96%'
p1419
tp1420
a(S'100.89'
p1421
S'0.27%'
p1422
tp1423
a(S'100.62'
p1424
S'-1.00%'
p1425
tp1426
a(S'101.64'
p1427
S'0.51%'
p1428
tp1429
a(S'101.12'
p1430
S'-1.26%'
p1431
tp1432
a(S'102.41'
p1433
S'0.32%'
p1434
tp1435
a(S'102.08'
p1436
S'-0.72%'
p1437
tp1438
a(S'102.82'
p1439
S'-0.96%'
p1440
tp1441
a(S'103.82'
p1442
S'0.83%'
p1443
tp1444
a(S'102.97'
p1445
S'0.69%'
p1446
tp1447
a(S'102.26'
p1448
S'-0.57%'
p1449
tp1450
a(S'102.85'
p1451
S'-0.83%'
p1452
tp1453
a(S'103.71'
p1454
S'0.11%'
p1455
tp1456
a(S'103.6'
p1457
S'3.60%'
p1458
tp1459
a(S'100'
p1460
S'0.00%'
p1461
tp1462
asS'Credit Suisse Event Driven Distressed Hedge Fund Index'
p1463
(lp1464
(S'766.97'
p1465
S'2.04%'
p1466
tp1467
a(S'751.63'
p1468
S'0.40%'
p1469
tp1470
a(S'748.63'
p1471
S'1.94%'
p1472
tp1473
a(S'734.37'
p1474
S'1.55%'
p1475
tp1476
a(S'723.19'
p1477
S'1.53%'
p1478
tp1479
a(S'712.28'
p1480
S'1.38%'
p1481
tp1482
a(S'702.61'
p1483
S'-0.48%'
p1484
tp1485
a(S'706.01'
p1486
S'1.31%'
p1487
tp1488
a(S'696.88'
p1489
S'-0.86%'
p1490
tp1491
a(S'702.95'
p1492
S'2.38%'
p1493
tp1494
a(S'686.64'
p1495
S'1.34%'
p1496
tp1497
a(S'677.57'
p1498
S'2.18%'
p1499
tp1500
a(S'663.09'
p1501
S'1.04%'
p1502
tp1503
a(S'656.28'
p1504
S'1.69%'
p1505
tp1506
a(S'645.39'
p1507
S'1.91%'
p1508
tp1509
a(S'633.32'
p1510
S'0.26%'
p1511
tp1512
a(S'631.68'
p1513
S'1.03%'
p1514
tp1515
a(S'625.27'
p1516
S'1.78%'
p1517
tp1518
a(S'614.35'
p1519
S'0.88%'
p1520
tp1521
a(S'608.99'
p1522
S'0.95%'
p1523
tp1524
a(S'603.27'
p1525
S'-0.23%'
p1526
tp1527
a(S'604.64'
p1528
S'-1.24%'
p1529
tp1530
a(S'612.26'
p1531
S'0.14%'
p1532
tp1533
a(S'611.41'
p1534
S'1.48%'
p1535
tp1536
a(S'602.49'
p1537
S'1.89%'
p1538
tp1539
a(S'591.33'
p1540
S'2.40%'
p1541
tp1542
a(S'577.45'
p1543
S'-0.05%'
p1544
tp1545
a(S'577.75'
p1546
S'-1.20%'
p1547
tp1548
a(S'584.77'
p1549
S'1.99%'
p1550
tp1551
a(S'573.38'
p1552
S'-3.28%'
p1553
tp1554
a(S'592.8'
p1555
S'-4.41%'
p1556
tp1557
a(S'620.13'
p1558
S'-0.26%'
p1559
tp1560
a(S'621.76'
p1561
S'-0.70%'
p1562
tp1563
a(S'626.17'
p1564
S'0.01%'
p1565
tp1566
a(S'626.12'
p1567
S'1.14%'
p1568
tp1569
a(S'619.08'
p1570
S'-0.10%'
p1571
tp1572
a(S'619.71'
p1573
S'0.86%'
p1574
tp1575
a(S'614.44'
p1576
S'1.90%'
p1577
tp1578
a(S'603.01'
p1579
S'2.73%'
p1580
tp1581
a(S'586.99'
p1582
S'0.33%'
p1583
tp1584
a(S'585.07'
p1585
S'1.32%'
p1586
tp1587
a(S'577.45'
p1588
S'2.07%'
p1589
tp1590
a(S'565.72'
p1591
S'-0.64%'
p1592
tp1593
a(S'569.38'
p1594
S'1.10%'
p1595
tp1596
a(S'563.19'
p1597
S'-1.10%'
p1598
tp1599
a(S'569.45'
p1600
S'-2.50%'
p1601
tp1602
a(S'584.08'
p1603
S'1.69%'
p1604
tp1605
a(S'574.39'
p1606
S'2.64%'
p1607
tp1608
a(S'559.6'
p1609
S'0.29%'
p1610
tp1611
a(S'557.97'
p1612
S'2.02%'
p1613
tp1614
a(S'546.91'
p1615
S'2.51%'
p1616
tp1617
a(S'533.54'
p1618
S'2.08%'
p1619
tp1620
a(S'522.69'
p1621
S'0.71%'
p1622
tp1623
a(S'519.01'
p1624
S'3.38%'
p1625
tp1626
a(S'502.03'
p1627
S'2.12%'
p1628
tp1629
a(S'491.62'
p1630
S'2.25%'
p1631
tp1632
a(S'480.82'
p1633
S'1.44%'
p1634
tp1635
a(S'473.99'
p1636
S'4.15%'
p1637
tp1638
a(S'455.09'
p1639
S'1.80%'
p1640
tp1641
a(S'447.05'
p1642
S'0.12%'
p1643
tp1644
a(S'446.52'
p1645
S'-1.20%'
p1646
tp1647
a(S'451.93'
p1648
S'-0.06%'
p1649
tp1650
a(S'452.18'
p1651
S'-2.54%'
p1652
tp1653
a(S'463.96'
p1654
S'-5.00%'
p1655
tp1656
a(S'488.38'
p1657
S'-5.66%'
p1658
tp1659
a(S'517.69'
p1660
S'-5.18%'
p1661
tp1662
a(S'545.97'
p1663
S'-0.07%'
p1664
tp1665
a(S'546.34'
p1666
S'-2.59%'
p1667
tp1668
a(S'560.88'
p1669
S'-0.51%'
p1670
tp1671
a(S'563.74'
p1672
S'1.50%'
p1673
tp1674
a(S'555.41'
p1675
S'0.24%'
p1676
tp1677
a(S'554.07'
p1678
S'-1.04%'
p1679
tp1680
a(S'559.91'
p1681
S'0.17%'
p1682
tp1683
a(S'558.96'
p1684
S'-1.70%'
p1685
tp1686
a(S'568.63'
p1687
S'0.06%'
p1688
tp1689
a(S'568.28'
p1690
S'-1.30%'
p1691
tp1692
a(S'575.78'
p1693
S'1.41%'
p1694
tp1695
a(S'567.75'
p1696
S'1.14%'
p1697
tp1698
a(S'561.35'
p1699
S'-1.73%'
p1700
tp1701
a(S'571.24'
p1702
S'-0.24%'
p1703
tp1704
a(S'572.64'
p1705
S'0.95%'
p1706
tp1707
a(S'567.24'
p1708
S'2.08%'
p1709
tp1710
a(S'555.68'
p1711
S'1.57%'
p1712
tp1713
a(S'547.11'
p1714
S'1.27%'
p1715
tp1716
a(S'540.23'
p1717
S'1.21%'
p1718
tp1719
a(S'533.76'
p1720
S'1.71%'
p1721
tp1722
a(S'524.79'
p1723
S'1.68%'
p1724
tp1725
a(S'516.11'
p1726
S'1.59%'
p1727
tp1728
a(S'508.04'
p1729
S'2.65%'
p1730
tp1731
a(S'494.91'
p1732
S'0.50%'
p1733
tp1734
a(S'492.44'
p1735
S'1.15%'
p1736
tp1737
a(S'486.84'
p1738
S'-0.09%'
p1739
tp1740
a(S'487.28'
p1741
S'0.76%'
p1742
tp1743
a(S'483.62'
p1744
S'0.39%'
p1745
tp1746
a(S'481.74'
p1747
S'1.52%'
p1748
tp1749
a(S'474.53'
p1750
S'1.73%'
p1751
tp1752
a(S'466.45'
p1753
S'0.21%'
p1754
tp1755
a(S'465.48'
p1756
S'2.52%'
p1757
tp1758
a(S'454.05'
p1759
S'1.73%'
p1760
tp1761
a(S'446.31'
p1762
S'1.63%'
p1763
tp1764
a(S'439.16'
p1765
S'-0.10%'
p1766
tp1767
a(S'439.6'
p1768
S'1.24%'
p1769
tp1770
a(S'434.2'
p1771
S'1.00%'
p1772
tp1773
a(S'429.91'
p1774
S'1.65%'
p1775
tp1776
a(S'422.95'
p1777
S'1.21%'
p1778
tp1779
a(S'417.88'
p1780
S'0.13%'
p1781
tp1782
a(S'417.32'
p1783
S'-0.06%'
p1784
tp1785
a(S'417.57'
p1786
S'0.65%'
p1787
tp1788
a(S'414.87'
p1789
S'1.55%'
p1790
tp1791
a(S'408.55'
p1792
S'0.55%'
p1793
tp1794
a(S'406.33'
p1795
S'1.92%'
p1796
tp1797
a(S'398.66'
p1798
S'2.67%'
p1799
tp1800
a(S'388.29'
p1801
S'1.86%'
p1802
tp1803
a(S'381.21'
p1804
S'1.23%'
p1805
tp1806
a(S'376.56'
p1807
S'0.56%'
p1808
tp1809
a(S'374.46'
p1810
S'0.52%'
p1811
tp1812
a(S'372.52'
p1813
S'1.06%'
p1814
tp1815
a(S'368.62'
p1816
S'0.26%'
p1817
tp1818
a(S'367.68'
p1819
S'0.66%'
p1820
tp1821
a(S'365.26'
p1822
S'0.59%'
p1823
tp1824
a(S'363.13'
p1825
S'0.89%'
p1826
tp1827
a(S'359.94'
p1828
S'2.42%'
p1829
tp1830
a(S'351.45'
p1831
S'1.73%'
p1832
tp1833
a(S'345.49'
p1834
S'1.21%'
p1835
tp1836
a(S'341.36'
p1837
S'1.98%'
p1838
tp1839
a(S'334.74'
p1840
S'2.21%'
p1841
tp1842
a(S'327.49'
p1843
S'1.02%'
p1844
tp1845
a(S'324.18'
p1846
S'1.14%'
p1847
tp1848
a(S'320.53'
p1849
S'2.63%'
p1850
tp1851
a(S'312.33'
p1852
S'2.27%'
p1853
tp1854
a(S'305.39'
p1855
S'3.27%'
p1856
tp1857
a(S'295.73'
p1858
S'1.19%'
p1859
tp1860
a(S'292.24'
p1861
S'0.89%'
p1862
tp1863
a(S'289.66'
p1864
S'3.12%'
p1865
tp1866
a(S'280.9'
p1867
S'1.17%'
p1868
tp1869
a(S'277.65'
p1870
S'3.91%'
p1871
tp1872
a(S'267.21'
p1873
S'-0.72%'
p1874
tp1875
a(S'269.15'
p1876
S'-0.25%'
p1877
tp1878
a(S'269.82'
p1879
S'0.28%'
p1880
tp1881
a(S'269.06'
p1882
S'-4.27%'
p1883
tp1884
a(S'281.06'
p1885
S'-3.79%'
p1886
tp1887
a(S'292.12'
p1888
S'0.19%'
p1889
tp1890
a(S'291.58'
p1891
S'0.89%'
p1892
tp1893
a(S'289.02'
p1894
S'1.23%'
p1895
tp1896
a(S'285.52'
p1897
S'-0.63%'
p1898
tp1899
a(S'287.32'
p1900
S'1.58%'
p1901
tp1902
a(S'282.86'
p1903
S'1.62%'
p1904
tp1905
a(S'278.35'
p1906
S'0.76%'
p1907
tp1908
a(S'276.26'
p1909
S'2.35%'
p1910
tp1911
a(S'269.91'
p1912
S'-0.79%'
p1913
tp1914
a(S'272.05'
p1915
S'1.25%'
p1916
tp1917
a(S'268.7'
p1918
S'1.00%'
p1919
tp1920
a(S'266.05'
p1921
S'2.65%'
p1922
tp1923
a(S'259.17'
p1924
S'2.42%'
p1925
tp1926
a(S'253.05'
p1927
S'0.99%'
p1928
tp1929
a(S'250.56'
p1930
S'1.38%'
p1931
tp1932
a(S'247.16'
p1933
S'1.92%'
p1934
tp1935
a(S'242.51'
p1936
S'2.89%'
p1937
tp1938
a(S'235.7'
p1939
S'0.14%'
p1940
tp1941
a(S'235.36'
p1942
S'-1.06%'
p1943
tp1944
a(S'237.88'
p1945
S'-0.09%'
p1946
tp1947
a(S'238.1'
p1948
S'-0.31%'
p1949
tp1950
a(S'238.84'
p1951
S'1.77%'
p1952
tp1953
a(S'234.69'
p1954
S'-0.24%'
p1955
tp1956
a(S'235.25'
p1957
S'2.02%'
p1958
tp1959
a(S'230.6'
p1960
S'0.00%'
p1961
tp1962
a(S'230.59'
p1963
S'-1.32%'
p1964
tp1965
a(S'233.67'
p1966
S'0.15%'
p1967
tp1968
a(S'233.31'
p1969
S'0.49%'
p1970
tp1971
a(S'232.18'
p1972
S'0.42%'
p1973
tp1974
a(S'231.2'
p1975
S'1.90%'
p1976
tp1977
a(S'226.89'
p1978
S'1.55%'
p1979
tp1980
a(S'223.43'
p1981
S'-0.30%'
p1982
tp1983
a(S'224.11'
p1984
S'1.73%'
p1985
tp1986
a(S'220.29'
p1987
S'0.19%'
p1988
tp1989
a(S'219.87'
p1990
S'1.96%'
p1991
tp1992
a(S'215.65'
p1993
S'2.49%'
p1994
tp1995
a(S'210.41'
p1996
S'2.43%'
p1997
tp1998
a(S'205.42'
p1999
S'3.14%'
p2000
tp2001
a(S'199.17'
p2002
S'2.89%'
p2003
tp2004
a(S'193.57'
p2005
S'0.07%'
p2006
tp2007
a(S'193.44'
p2008
S'2.22%'
p2009
tp2010
a(S'189.23'
p2011
S'1.55%'
p2012
tp2013
a(S'186.34'
p2014
S'3.17%'
p2015
tp2016
a(S'180.62'
p2017
S'0.89%'
p2018
tp2019
a(S'179.03'
p2020
S'-1.43%'
p2021
tp2022
a(S'181.63'
p2023
S'-12.45%'
p2024
tp2025
a(S'207.47'
p2026
S'0.39%'
p2027
tp2028
a(S'206.66'
p2029
S'0.31%'
p2030
tp2031
a(S'206.03'
p2032
S'-1.41%'
p2033
tp2034
a(S'208.97'
p2035
S'0.51%'
p2036
tp2037
a(S'207.9'
p2038
S'1.27%'
p2039
tp2040
a(S'205.29'
p2041
S'2.80%'
p2042
tp2043
a(S'199.7'
p2044
S'3.76%'
p2045
tp2046
a(S'192.46'
p2047
S'0.39%'
p2048
tp2049
a(S'191.72'
p2050
S'1.84%'
p2051
tp2052
a(S'188.25'
p2053
S'1.22%'
p2054
tp2055
a(S'185.99'
p2056
S'2.97%'
p2057
tp2058
a(S'180.63'
p2059
S'-0.91%'
p2060
tp2061
a(S'182.28'
p2062
S'3.53%'
p2063
tp2064
a(S'176.06'
p2065
S'1.13%'
p2066
tp2067
a(S'174.1'
p2068
S'3.45%'
p2069
tp2070
a(S'168.29'
p2071
S'0.52%'
p2072
tp2073
a(S'167.42'
p2074
S'0.38%'
p2075
tp2076
a(S'166.79'
p2077
S'2.16%'
p2078
tp2079
a(S'163.27'
p2080
S'2.42%'
p2081
tp2082
a(S'159.41'
p2083
S'2.19%'
p2084
tp2085
a(S'155.99'
p2086
S'3.61%'
p2087
tp2088
a(S'150.55'
p2089
S'1.80%'
p2090
tp2091
a(S'147.89'
p2092
S'2.84%'
p2093
tp2094
a(S'143.81'
p2095
S'2.74%'
p2096
tp2097
a(S'139.98'
p2098
S'-0.33%'
p2099
tp2100
a(S'140.44'
p2101
S'0.67%'
p2102
tp2103
a(S'139.5'
p2104
S'1.09%'
p2105
tp2106
a(S'137.99'
p2107
S'2.69%'
p2108
tp2109
a(S'134.38'
p2110
S'1.30%'
p2111
tp2112
a(S'132.65'
p2113
S'0.36%'
p2114
tp2115
a(S'132.17'
p2116
S'4.10%'
p2117
tp2118
a(S'126.97'
p2119
S'3.89%'
p2120
tp2121
a(S'122.22'
p2122
S'1.28%'
p2123
tp2124
a(S'120.68'
p2125
S'-1.31%'
p2126
tp2127
a(S'122.28'
p2128
S'1.55%'
p2129
tp2130
a(S'120.41'
p2131
S'0.96%'
p2132
tp2133
a(S'119.26'
p2134
S'3.87%'
p2135
tp2136
a(S'114.82'
p2137
S'2.33%'
p2138
tp2139
a(S'112.21'
p2140
S'1.96%'
p2141
tp2142
a(S'110.05'
p2143
S'2.78%'
p2144
tp2145
a(S'107.07'
p2146
S'2.92%'
p2147
tp2148
a(S'104.03'
p2149
S'2.89%'
p2150
tp2151
a(S'101.11'
p2152
S'0.44%'
p2153
tp2154
a(S'100.67'
p2155
S'-0.63%'
p2156
tp2157
a(S'101.31'
p2158
S'-2.40%'
p2159
tp2160
a(S'103.8'
p2161
S'-0.35%'
p2162
tp2163
a(S'104.16'
p2164
S'1.11%'
p2165
tp2166
a(S'103.02'
p2167
S'2.04%'
p2168
tp2169
a(S'100.96'
p2170
S'1.80%'
p2171
tp2172
a(S'99.17'
p2173
S'-0.95%'
p2174
tp2175
a(S'100.12'
p2176
S'-0.84%'
p2177
tp2178
a(S'100.97'
p2179
S'-0.71%'
p2180
tp2181
a(S'101.69'
p2182
S'-1.83%'
p2183
tp2184
a(S'103.59'
p2185
S'-0.34%'
p2186
tp2187
a(S'103.94'
p2188
S'3.94%'
p2189
tp2190
a(S'100'
p2191
S'0.00%'
p2192
tp2193
asS'Credit Suisse Hedge Fund Index '
p2194
(lp2195
(S'539.51'
p2196
S'1.72%'
p2197
tp2198
a(S'530.41'
p2199
S'-0.29%'
p2200
tp2201
a(S'531.93'
p2202
S'1.19%'
p2203
tp2204
a(S'525.65'
p2205
S'1.31%'
p2206
tp2207
a(S'518.86'
p2208
S'1.59%'
p2209
tp2210
a(S'510.72'
p2211
S'1.27%'
p2212
tp2213
a(S'504.3'
p2214
S'-0.54%'
p2215
tp2216
a(S'507.05'
p2217
S'0.88%'
p2218
tp2219
a(S'502.62'
p2220
S'-1.66%'
p2221
tp2222
a(S'511.08'
p2223
S'0.42%'
p2224
tp2225
a(S'508.95'
p2226
S'1.39%'
p2227
tp2228
a(S'501.99'
p2229
S'1.21%'
p2230
tp2231
a(S'495.98'
p2232
S'0.24%'
p2233
tp2234
a(S'494.8'
p2235
S'2.07%'
p2236
tp2237
a(S'484.78'
p2238
S'1.48%'
p2239
tp2240
a(S'477.7'
p2241
S'0.64%'
p2242
tp2243
a(S'474.65'
p2244
S'-0.18%'
p2245
tp2246
a(S'475.5'
p2247
S'1.04%'
p2248
tp2249
a(S'470.6'
p2250
S'0.84%'
p2251
tp2252
a(S'466.68'
p2253
S'1.42%'
p2254
tp2255
a(S'460.14'
p2256
S'-0.40%'
p2257
tp2258
a(S'461.99'
p2259
S'-1.33%'
p2260
tp2261
a(S'468.22'
p2262
S'-0.04%'
p2263
tp2264
a(S'468.4'
p2265
S'0.05%'
p2266
tp2267
a(S'468.17'
p2268
S'1.61%'
p2269
tp2270
a(S'460.75'
p2271
S'2.34%'
p2272
tp2273
a(S'450.23'
p2274
S'-0.22%'
p2275
tp2276
a(S'451.21'
p2277
S'-0.79%'
p2278
tp2279
a(S'454.79'
p2280
S'1.73%'
p2281
tp2282
a(S'447.06'
p2283
S'-3.20%'
p2284
tp2285
a(S'461.84'
p2286
S'-2.30%'
p2287
tp2288
a(S'472.71'
p2289
S'0.69%'
p2290
tp2291
a(S'469.48'
p2292
S'-1.36%'
p2293
tp2294
a(S'475.96'
p2295
S'-0.96%'
p2296
tp2297
a(S'480.56'
p2298
S'1.80%'
p2299
tp2300
a(S'472.05'
p2301
S'0.12%'
p2302
tp2303
a(S'471.47'
p2304
S'1.38%'
p2305
tp2306
a(S'465.04'
p2307
S'0.69%'
p2308
tp2309
a(S'461.86'
p2310
S'2.90%'
p2311
tp2312
a(S'448.83'
p2313
S'-0.18%'
p2314
tp2315
a(S'449.66'
p2316
S'1.92%'
p2317
tp2318
a(S'441.18'
p2319
S'3.43%'
p2320
tp2321
a(S'426.54'
p2322
S'0.23%'
p2323
tp2324
a(S'425.54'
p2325
S'1.59%'
p2326
tp2327
a(S'418.89'
p2328
S'-0.84%'
p2329
tp2330
a(S'422.45'
p2331
S'-2.76%'
p2332
tp2333
a(S'434.46'
p2334
S'1.24%'
p2335
tp2336
a(S'429.14'
p2337
S'2.22%'
p2338
tp2339
a(S'419.82'
p2340
S'0.68%'
p2341
tp2342
a(S'416.98'
p2343
S'0.17%'
p2344
tp2345
a(S'416.28'
p2346
S'0.88%'
p2347
tp2348
a(S'412.64'
p2349
S'2.11%'
p2350
tp2351
a(S'404.13'
p2352
S'0.13%'
p2353
tp2354
a(S'403.62'
p2355
S'3.04%'
p2356
tp2357
a(S'391.71'
p2358
S'1.53%'
p2359
tp2360
a(S'385.82'
p2361
S'2.54%'
p2362
tp2363
a(S'376.27'
p2364
S'0.43%'
p2365
tp2366
a(S'374.66'
p2367
S'4.06%'
p2368
tp2369
a(S'360.04'
p2370
S'1.68%'
p2371
tp2372
a(S'354.08'
p2373
S'0.65%'
p2374
tp2375
a(S'351.78'
p2376
S'-0.88%'
p2377
tp2378
a(S'354.92'
p2379
S'1.09%'
p2380
tp2381
a(S'351.08'
p2382
S'-0.03%'
p2383
tp2384
a(S'351.2'
p2385
S'-4.15%'
p2386
tp2387
a(S'366.39'
p2388
S'-6.30%'
p2389
tp2390
a(S'391.02'
p2391
S'-6.55%'
p2392
tp2393
a(S'418.43'
p2394
S'-1.47%'
p2395
tp2396
a(S'424.68'
p2397
S'-2.61%'
p2398
tp2399
a(S'436.05'
p2400
S'0.00%'
p2401
tp2402
a(S'436.07'
p2403
S'2.00%'
p2404
tp2405
a(S'427.53'
p2406
S'0.57%'
p2407
tp2408
a(S'425.1'
p2409
S'-2.11%'
p2410
tp2411
a(S'434.26'
p2412
S'1.61%'
p2413
tp2414
a(S'427.4'
p2415
S'-1.48%'
p2416
tp2417
a(S'433.82'
p2418
S'0.47%'
p2419
tp2420
a(S'431.81'
p2421
S'-1.21%'
p2422
tp2423
a(S'437.08'
p2424
S'3.16%'
p2425
tp2426
a(S'423.68'
p2427
S'2.71%'
p2428
tp2429
a(S'412.52'
p2430
S'-1.53%'
p2431
tp2432
a(S'418.93'
p2433
S'0.00%'
p2434
tp2435
a(S'418.95'
p2436
S'0.78%'
p2437
tp2438
a(S'415.71'
p2439
S'2.31%'
p2440
tp2441
a(S'406.33'
p2442
S'2.02%'
p2443
tp2444
a(S'398.28'
p2445
S'1.24%'
p2446
tp2447
a(S'393.42'
p2448
S'0.74%'
p2449
tp2450
a(S'390.53'
p2451
S'1.33%'
p2452
tp2453
a(S'385.41'
p2454
S'1.83%'
p2455
tp2456
a(S'378.47'
p2457
S'2.07%'
p2458
tp2459
a(S'370.79'
p2460
S'1.77%'
p2461
tp2462
a(S'364.34'
p2463
S'0.13%'
p2464
tp2465
a(S'363.87'
p2466
S'0.85%'
p2467
tp2468
a(S'360.79'
p2469
S'0.29%'
p2470
tp2471
a(S'359.76'
p2472
S'-0.11%'
p2473
tp2474
a(S'360.14'
p2475
S'-1.30%'
p2476
tp2477
a(S'364.88'
p2478
S'2.22%'
p2479
tp2480
a(S'356.97'
p2481
S'1.82%'
p2482
tp2483
a(S'350.58'
p2484
S'0.34%'
p2485
tp2486
a(S'349.4'
p2487
S'3.23%'
p2488
tp2489
a(S'338.48'
p2490
S'1.61%'
p2491
tp2492
a(S'333.11'
p2493
S'1.48%'
p2494
tp2495
a(S'328.25'
p2496
S'-1.46%'
p2497
tp2498
a(S'333.1'
p2499
S'1.63%'
p2500
tp2501
a(S'327.77'
p2502
S'0.88%'
p2503
tp2504
a(S'324.9'
p2505
S'1.92%'
p2506
tp2507
a(S'318.77'
p2508
S'1.31%'
p2509
tp2510
a(S'314.66'
p2511
S'0.15%'
p2512
tp2513
a(S'314.2'
p2514
S'-1.04%'
p2515
tp2516
a(S'317.49'
p2517
S'-0.15%'
p2518
tp2519
a(S'317.98'
p2520
S'1.43%'
p2521
tp2522
a(S'313.49'
p2523
S'-0.34%'
p2524
tp2525
a(S'314.55'
p2526
S'1.61%'
p2527
tp2528
a(S'309.58'
p2529
S'2.65%'
p2530
tp2531
a(S'301.59'
p2532
S'1.28%'
p2533
tp2534
a(S'297.77'
p2535
S'1.01%'
p2536
tp2537
a(S'294.78'
p2538
S'0.14%'
p2539
tp2540
a(S'294.38'
p2541
S'-0.31%'
p2542
tp2543
a(S'295.3'
p2544
S'0.34%'
p2545
tp2546
a(S'294.29'
p2547
S'-0.23%'
p2548
tp2549
a(S'294.97'
p2550
S'-0.58%'
p2551
tp2552
a(S'296.7'
p2553
S'0.28%'
p2554
tp2555
a(S'295.86'
p2556
S'1.40%'
p2557
tp2558
a(S'291.78'
p2559
S'1.70%'
p2560
tp2561
a(S'286.89'
p2562
S'1.95%'
p2563
tp2564
a(S'281.39'
p2565
S'1.08%'
p2566
tp2567
a(S'278.39'
p2568
S'1.38%'
p2569
tp2570
a(S'274.61'
p2571
S'1.52%'
p2572
tp2573
a(S'270.51'
p2574
S'0.76%'
p2575
tp2576
a(S'268.47'
p2577
S'0.08%'
p2578
tp2579
a(S'268.25'
p2580
S'0.83%'
p2581
tp2582
a(S'266.04'
p2583
S'2.71%'
p2584
tp2585
a(S'259.01'
p2586
S'1.96%'
p2587
tp2588
a(S'254.04'
p2589
S'0.26%'
p2590
tp2591
a(S'253.38'
p2592
S'0.68%'
p2593
tp2594
a(S'251.68'
p2595
S'1.28%'
p2596
tp2597
a(S'248.51'
p2598
S'1.07%'
p2599
tp2600
a(S'245.89'
p2601
S'1.09%'
p2602
tp2603
a(S'243.23'
p2604
S'-0.04%'
p2605
tp2606
a(S'243.33'
p2607
S'0.08%'
p2608
tp2609
a(S'243.14'
p2610
S'0.85%'
p2611
tp2612
a(S'241.1'
p2613
S'-1.35%'
p2614
tp2615
a(S'244.39'
p2616
S'-0.84%'
p2617
tp2618
a(S'246.47'
p2619
S'0.67%'
p2620
tp2621
a(S'244.82'
p2622
S'0.79%'
p2623
tp2624
a(S'242.89'
p2625
S'0.74%'
p2626
tp2627
a(S'241.11'
p2628
S'-0.56%'
p2629
tp2630
a(S'242.47'
p2631
S'0.54%'
p2632
tp2633
a(S'241.17'
p2634
S'1.19%'
p2635
tp2636
a(S'238.33'
p2637
S'0.54%'
p2638
tp2639
a(S'237.05'
p2640
S'0.44%'
p2641
tp2642
a(S'236.01'
p2643
S'-0.83%'
p2644
tp2645
a(S'237.99'
p2646
S'0.92%'
p2647
tp2648
a(S'235.83'
p2649
S'-0.02%'
p2650
tp2651
a(S'235.88'
p2652
S'0.58%'
p2653
tp2654
a(S'234.51'
p2655
S'0.83%'
p2656
tp2657
a(S'232.59'
p2658
S'0.69%'
p2659
tp2660
a(S'231'
p2661
S'-0.34%'
p2662
tp2663
a(S'231.78'
p2664
S'-0.59%'
p2665
tp2666
a(S'233.15'
p2667
S'0.94%'
p2668
tp2669
a(S'230.97'
p2670
S'2.66%'
p2671
tp2672
a(S'224.99'
p2673
S'-1.55%'
p2674
tp2675
a(S'228.53'
p2676
S'-1.09%'
p2677
tp2678
a(S'231.05'
p2679
S'-0.41%'
p2680
tp2681
a(S'232'
p2682
S'3.39%'
p2683
tp2684
a(S'224.39'
p2685
S'0.11%'
p2686
tp2687
a(S'224.14'
p2688
S'3.66%'
p2689
tp2690
a(S'216.22'
p2691
S'-1.17%'
p2692
tp2693
a(S'218.78'
p2694
S'-4.63%'
p2695
tp2696
a(S'229.39'
p2697
S'-2.12%'
p2698
tp2699
a(S'234.35'
p2700
S'6.49%'
p2701
tp2702
a(S'220.07'
p2703
S'-0.10%'
p2704
tp2705
a(S'220.29'
p2706
S'8.53%'
p2707
tp2708
a(S'202.98'
p2709
S'4.96%'
p2710
tp2711
a(S'193.38'
p2712
S'2.37%'
p2713
tp2714
a(S'188.9'
p2715
S'-0.32%'
p2716
tp2717
a(S'189.51'
p2718
S'-0.90%'
p2719
tp2720
a(S'191.24'
p2721
S'0.26%'
p2722
tp2723
a(S'190.74'
p2724
S'3.28%'
p2725
tp2726
a(S'184.69'
p2727
S'0.13%'
p2728
tp2729
a(S'184.45'
p2730
S'2.63%'
p2731
tp2732
a(S'179.73'
p2733
S'1.22%'
p2734
tp2735
a(S'177.56'
p2736
S'-1.31%'
p2737
tp2738
a(S'179.91'
p2739
S'0.80%'
p2740
tp2741
a(S'178.48'
p2742
S'3.03%'
p2743
tp2744
a(S'173.23'
p2745
S'1.36%'
p2746
tp2747
a(S'170.91'
p2748
S'-4.57%'
p2749
tp2750
a(S'179.1'
p2751
S'-2.31%'
p2752
tp2753
a(S'183.33'
p2754
S'-7.55%'
p2755
tp2756
a(S'198.3'
p2757
S'0.90%'
p2758
tp2759
a(S'196.54'
p2760
S'1.59%'
p2761
tp2762
a(S'193.47'
p2763
S'0.26%'
p2764
tp2765
a(S'192.96'
p2766
S'0.95%'
p2767
tp2768
a(S'191.14'
p2769
S'5.94%'
p2770
tp2771
a(S'180.42'
p2772
S'1.96%'
p2773
tp2774
a(S'176.96'
p2775
S'-1.21%'
p2776
tp2777
a(S'179.13'
p2778
S'3.22%'
p2779
tp2780
a(S'173.54'
p2781
S'1.00%'
p2782
tp2783
a(S'171.82'
p2784
S'-1.64%'
p2785
tp2786
a(S'174.68'
p2787
S'3.99%'
p2788
tp2789
a(S'167.97'
p2790
S'-1.26%'
p2791
tp2792
a(S'170.11'
p2793
S'6.99%'
p2794
tp2795
a(S'158.99'
p2796
S'2.26%'
p2797
tp2798
a(S'155.48'
p2799
S'0.88%'
p2800
tp2801
a(S'154.12'
p2802
S'2.86%'
p2803
tp2804
a(S'149.84'
p2805
S'-1.41%'
p2806
tp2807
a(S'151.99'
p2808
S'1.30%'
p2809
tp2810
a(S'150.04'
p2811
S'5.48%'
p2812
tp2813
a(S'142.24'
p2814
S'0.31%'
p2815
tp2816
a(S'141.8'
p2817
S'5.04%'
p2818
tp2819
a(S'134.99'
p2820
S'3.35%'
p2821
tp2822
a(S'130.61'
p2823
S'2.50%'
p2824
tp2825
a(S'127.42'
p2826
S'2.48%'
p2827
tp2828
a(S'124.34'
p2829
S'-4.13%'
p2830
tp2831
a(S'129.7'
p2832
S'1.74%'
p2833
tp2834
a(S'127.48'
p2835
S'1.93%'
p2836
tp2837
a(S'125.07'
p2838
S'3.12%'
p2839
tp2840
a(S'121.29'
p2841
S'1.06%'
p2842
tp2843
a(S'120.02'
p2844
S'-3.59%'
p2845
tp2846
a(S'124.49'
p2847
S'6.97%'
p2848
tp2849
a(S'116.38'
p2850
S'3.06%'
p2851
tp2852
a(S'112.92'
p2853
S'3.14%'
p2854
tp2855
a(S'109.48'
p2856
S'-0.11%'
p2857
tp2858
a(S'109.6'
p2859
S'0.38%'
p2860
tp2861
a(S'109.19'
p2862
S'6.00%'
p2863
tp2864
a(S'103.01'
p2865
S'2.76%'
p2866
tp2867
a(S'100.24'
p2868
S'0.37%'
p2869
tp2870
a(S'99.87'
p2871
S'1.01%'
p2872
tp2873
a(S'98.87'
p2874
S'1.45%'
p2875
tp2876
a(S'97.46'
p2877
S'3.48%'
p2878
tp2879
a(S'94.18'
p2880
S'0.45%'
p2881
tp2882
a(S'93.76'
p2883
S'-1.97%'
p2884
tp2885
a(S'95.64'
p2886
S'-0.21%'
p2887
tp2888
a(S'95.84'
p2889
S'0.41%'
p2890
tp2891
a(S'95.45'
p2892
S'-1.35%'
p2893
tp2894
a(S'96.76'
p2895
S'0.67%'
p2896
tp2897
a(S'96.12'
p2898
S'2.77%'
p2899
tp2900
a(S'93.53'
p2901
S'0.35%'
p2902
tp2903
a(S'93.2'
p2904
S'-0.81%'
p2905
tp2906
a(S'93.96'
p2907
S'2.23%'
p2908
tp2909
a(S'91.91'
p2910
S'-1.74%'
p2911
tp2912
a(S'93.54'
p2913
S'-3.57%'
p2914
tp2915
a(S'97'
p2916
S'-4.09%'
p2917
tp2918
a(S'101.14'
p2919
S'1.14%'
p2920
tp2921
a(S'100'
p2922
S'0.00%'
p2923
tp2924
asS'Credit Suisse Long/Short Equity Hedge Fund Index'
p2925
(lp2926
(S'637.07'
p2927
S'2.88%'
p2928
tp2929
a(S'619.23'
p2930
S'-0.08%'
p2931
tp2932
a(S'619.71'
p2933
S'1.80%'
p2934
tp2935
a(S'608.75'
p2936
S'1.85%'
p2937
tp2938
a(S'597.7'
p2939
S'2.54%'
p2940
tp2941
a(S'582.87'
p2942
S'2.64%'
p2943
tp2944
a(S'567.88'
p2945
S'-1.11%'
p2946
tp2947
a(S'574.28'
p2948
S'1.95%'
p2949
tp2950
a(S'563.28'
p2951
S'-0.63%'
p2952
tp2953
a(S'566.83'
p2954
S'1.19%'
p2955
tp2956
a(S'560.16'
p2957
S'1.26%'
p2958
tp2959
a(S'553.2'
p2960
S'1.38%'
p2961
tp2962
a(S'545.66'
p2963
S'0.12%'
p2964
tp2965
a(S'545.01'
p2966
S'3.54%'
p2967
tp2968
a(S'526.36'
p2969
S'1.58%'
p2970
tp2971
a(S'518.16'
p2972
S'0.73%'
p2973
tp2974
a(S'514.41'
p2975
S'-0.21%'
p2976
tp2977
a(S'515.48'
p2978
S'1.57%'
p2979
tp2980
a(S'507.51'
p2981
S'1.51%'
p2982
tp2983
a(S'499.94'
p2984
S'0.55%'
p2985
tp2986
a(S'497.21'
p2987
S'0.35%'
p2988
tp2989
a(S'495.5'
p2990
S'-4.53%'
p2991
tp2992
a(S'518.99'
p2993
S'-0.46%'
p2994
tp2995
a(S'521.41'
p2996
S'0.50%'
p2997
tp2998
a(S'518.81'
p2999
S'2.64%'
p3000
tp3001
a(S'505.45'
p3002
S'3.91%'
p3003
tp3004
a(S'486.44'
p3005
S'-0.88%'
p3006
tp3007
a(S'490.78'
p3008
S'-1.48%'
p3009
tp3010
a(S'498.15'
p3011
S'4.45%'
p3012
tp3013
a(S'476.91'
p3014
S'-5.22%'
p3015
tp3016
a(S'503.18'
p3017
S'-4.44%'
p3018
tp3019
a(S'526.58'
p3020
S'-0.41%'
p3021
tp3022
a(S'528.75'
p3023
S'-1.49%'
p3024
tp3025
a(S'536.73'
p3026
S'-1.68%'
p3027
tp3028
a(S'545.89'
p3029
S'1.70%'
p3030
tp3031
a(S'536.76'
p3032
S'0.28%'
p3033
tp3034
a(S'535.24'
p3035
S'1.72%'
p3036
tp3037
a(S'526.19'
p3038
S'0.27%'
p3039
tp3040
a(S'524.79'
p3041
S'3.42%'
p3042
tp3043
a(S'507.43'
p3044
S'0.46%'
p3045
tp3046
a(S'505.12'
p3047
S'2.00%'
p3048
tp3049
a(S'495.2'
p3050
S'5.09%'
p3051
tp3052
a(S'471.2'
p3053
S'-1.12%'
p3054
tp3055
a(S'476.53'
p3056
S'2.53%'
p3057
tp3058
a(S'464.78'
p3059
S'-2.07%'
p3060
tp3061
a(S'474.61'
p3062
S'-4.13%'
p3063
tp3064
a(S'495.05'
p3065
S'0.29%'
p3066
tp3067
a(S'493.63'
p3068
S'2.99%'
p3069
tp3070
a(S'479.28'
p3071
S'1.32%'
p3072
tp3073
a(S'473.03'
p3074
S'-1.50%'
p3075
tp3076
a(S'480.23'
p3077
S'1.69%'
p3078
tp3079
a(S'472.24'
p3080
S'1.92%'
p3081
tp3082
a(S'463.35'
p3083
S'-1.21%'
p3084
tp3085
a(S'469.03'
p3086
S'3.23%'
p3087
tp3088
a(S'454.36'
p3089
S'1.42%'
p3090
tp3091
a(S'448.02'
p3092
S'2.99%'
p3093
tp3094
a(S'435'
p3095
S'-0.04%'
p3096
tp3097
a(S'435.16'
p3098
S'5.23%'
p3099
tp3100
a(S'413.52'
p3101
S'2.54%'
p3102
tp3103
a(S'403.27'
p3104
S'1.86%'
p3105
tp3106
a(S'395.92'
p3107
S'-1.34%'
p3108
tp3109
a(S'401.28'
p3110
S'-0.17%'
p3111
tp3112
a(S'401.98'
p3113
S'1.06%'
p3114
tp3115
a(S'397.78'
p3116
S'-1.41%'
p3117
tp3118
a(S'403.48'
p3119
S'-7.13%'
p3120
tp3121
a(S'434.47'
p3122
S'-7.81%'
p3123
tp3124
a(S'471.3'
p3125
S'-2.11%'
p3126
tp3127
a(S'481.48'
p3128
S'-3.43%'
p3129
tp3130
a(S'498.59'
p3131
S'-1.33%'
p3132
tp3133
a(S'505.31'
p3134
S'2.91%'
p3135
tp3136
a(S'491'
p3137
S'2.20%'
p3138
tp3139
a(S'480.43'
p3140
S'-2.06%'
p3141
tp3142
a(S'490.55'
p3143
S'2.06%'
p3144
tp3145
a(S'480.67'
p3146
S'-4.05%'
p3147
tp3148
a(S'500.98'
p3149
S'0.42%'
p3150
tp3151
a(S'498.88'
p3152
S'-1.71%'
p3153
tp3154
a(S'507.57'
p3155
S'3.73%'
p3156
tp3157
a(S'489.3'
p3158
S'3.31%'
p3159
tp3160
a(S'473.62'
p3161
S'-1.38%'
p3162
tp3163
a(S'480.24'
p3164
S'-0.69%'
p3165
tp3166
a(S'483.56'
p3167
S'0.42%'
p3168
tp3169
a(S'481.56'
p3170
S'2.31%'
p3171
tp3172
a(S'470.69'
p3173
S'2.90%'
p3174
tp3175
a(S'457.41'
p3176
S'1.87%'
p3177
tp3178
a(S'449.02'
p3179
S'0.71%'
p3180
tp3181
a(S'445.86'
p3182
S'1.15%'
p3183
tp3184
a(S'440.78'
p3185
S'2.08%'
p3186
tp3187
a(S'431.79'
p3188
S'2.60%'
p3189
tp3190
a(S'420.83'
p3191
S'2.19%'
p3192
tp3193
a(S'411.8'
p3194
S'0.09%'
p3195
tp3196
a(S'411.45'
p3197
S'1.54%'
p3198
tp3199
a(S'405.21'
p3200
S'-0.05%'
p3201
tp3202
a(S'405.41'
p3203
S'-1.01%'
p3204
tp3205
a(S'409.55'
p3206
S'-2.84%'
p3207
tp3208
a(S'421.51'
p3209
S'2.34%'
p3210
tp3211
a(S'411.88'
p3212
S'2.45%'
p3213
tp3214
a(S'402.03'
p3215
S'0.14%'
p3216
tp3217
a(S'401.47'
p3218
S'4.18%'
p3219
tp3220
a(S'385.37'
p3221
S'2.78%'
p3222
tp3223
a(S'374.95'
p3224
S'2.22%'
p3225
tp3226
a(S'366.8'
p3227
S'-2.29%'
p3228
tp3229
a(S'375.39'
p3230
S'2.02%'
p3231
tp3232
a(S'367.95'
p3233
S'1.12%'
p3234
tp3235
a(S'363.86'
p3236
S'2.68%'
p3237
tp3238
a(S'354.38'
p3239
S'1.91%'
p3240
tp3241
a(S'347.74'
p3242
S'0.51%'
p3243
tp3244
a(S'345.99'
p3245
S'-1.55%'
p3246
tp3247
a(S'351.43'
p3248
S'-1.14%'
p3249
tp3250
a(S'355.48'
p3251
S'2.03%'
p3252
tp3253
a(S'348.4'
p3254
S'-0.84%'
p3255
tp3256
a(S'351.35'
p3257
S'2.57%'
p3258
tp3259
a(S'342.53'
p3260
S'3.24%'
p3261
tp3262
a(S'331.78'
p3263
S'1.44%'
p3264
tp3265
a(S'327.06'
p3266
S'2.36%'
p3267
tp3268
a(S'319.52'
p3269
S'0.09%'
p3270
tp3271
a(S'319.24'
p3272
S'-1.42%'
p3273
tp3274
a(S'323.84'
p3275
S'0.66%'
p3276
tp3277
a(S'321.73'
p3278
S'-0.36%'
p3279
tp3280
a(S'322.9'
p3281
S'-1.40%'
p3282
tp3283
a(S'327.5'
p3284
S'0.20%'
p3285
tp3286
a(S'326.84'
p3287
S'1.75%'
p3288
tp3289
a(S'321.22'
p3290
S'2.00%'
p3291
tp3292
a(S'314.93'
p3293
S'2.40%'
p3294
tp3295
a(S'307.56'
p3296
S'1.70%'
p3297
tp3298
a(S'302.43'
p3299
S'2.46%'
p3300
tp3301
a(S'295.18'
p3302
S'1.21%'
p3303
tp3304
a(S'291.64'
p3305
S'1.04%'
p3306
tp3307
a(S'288.65'
p3308
S'0.27%'
p3309
tp3310
a(S'287.87'
p3311
S'0.79%'
p3312
tp3313
a(S'285.62'
p3314
S'3.68%'
p3315
tp3316
a(S'275.48'
p3317
S'2.44%'
p3318
tp3319
a(S'268.93'
p3320
S'0.43%'
p3321
tp3322
a(S'267.79'
p3323
S'-0.21%'
p3324
tp3325
a(S'268.36'
p3326
S'-0.07%'
p3327
tp3328
a(S'268.55'
p3329
S'0.76%'
p3330
tp3331
a(S'266.53'
p3332
S'0.57%'
p3333
tp3334
a(S'265.01'
p3335
S'0.08%'
p3336
tp3337
a(S'264.79'
p3338
S'-0.47%'
p3339
tp3340
a(S'266.04'
p3341
S'1.01%'
p3342
tp3343
a(S'263.39'
p3344
S'-2.95%'
p3345
tp3346
a(S'271.41'
p3347
S'-1.26%'
p3348
tp3349
a(S'274.87'
p3350
S'0.80%'
p3351
tp3352
a(S'272.69'
p3353
S'0.61%'
p3354
tp3355
a(S'271.04'
p3356
S'0.91%'
p3357
tp3358
a(S'268.59'
p3359
S'-0.99%'
p3360
tp3361
a(S'271.27'
p3362
S'-0.60%'
p3363
tp3364
a(S'272.91'
p3365
S'1.24%'
p3366
tp3367
a(S'269.56'
p3368
S'1.10%'
p3369
tp3370
a(S'266.62'
p3371
S'-0.80%'
p3372
tp3373
a(S'268.76'
p3374
S'-1.57%'
p3375
tp3376
a(S'273.04'
p3377
S'0.45%'
p3378
tp3379
a(S'271.82'
p3380
S'-0.72%'
p3381
tp3382
a(S'273.78'
p3383
S'0.42%'
p3384
tp3385
a(S'272.63'
p3386
S'0.40%'
p3387
tp3388
a(S'271.55'
p3389
S'0.77%'
p3390
tp3391
a(S'269.47'
p3392
S'-1.94%'
p3393
tp3394
a(S'274.79'
p3395
S'-2.42%'
p3396
tp3397
a(S'281.6'
p3398
S'-0.58%'
p3399
tp3400
a(S'283.25'
p3401
S'3.42%'
p3402
tp3403
a(S'273.88'
p3404
S'-3.80%'
p3405
tp3406
a(S'284.71'
p3407
S'-2.54%'
p3408
tp3409
a(S'292.12'
p3410
S'-0.71%'
p3411
tp3412
a(S'294.22'
p3413
S'4.90%'
p3414
tp3415
a(S'280.49'
p3416
S'-0.63%'
p3417
tp3418
a(S'282.28'
p3419
S'6.13%'
p3420
tp3421
a(S'265.97'
p3422
S'-3.45%'
p3423
tp3424
a(S'275.48'
p3425
S'-7.46%'
p3426
tp3427
a(S'297.68'
p3428
S'-3.98%'
p3429
tp3430
a(S'310.02'
p3431
S'11.14%'
p3432
tp3433
a(S'278.94'
p3434
S'0.52%'
p3435
tp3436
a(S'277.49'
p3437
S'13.01%'
p3438
tp3439
a(S'245.55'
p3440
S'8.31%'
p3441
tp3442
a(S'226.7'
p3443
S'4.39%'
p3444
tp3445
a(S'217.16'
p3446
S'0.60%'
p3447
tp3448
a(S'215.87'
p3449
S'-0.27%'
p3450
tp3451
a(S'216.45'
p3452
S'1.54%'
p3453
tp3454
a(S'213.17'
p3455
S'4.65%'
p3456
tp3457
a(S'203.69'
p3458
S'-0.82%'
p3459
tp3460
a(S'205.38'
p3461
S'3.29%'
p3462
tp3463
a(S'198.83'
p3464
S'3.76%'
p3465
tp3466
a(S'191.62'
p3467
S'-3.14%'
p3468
tp3469
a(S'197.84'
p3470
S'4.97%'
p3471
tp3472
a(S'188.47'
p3473
S'6.56%'
p3474
tp3475
a(S'176.87'
p3476
S'3.74%'
p3477
tp3478
a(S'170.49'
p3479
S'1.74%'
p3480
tp3481
a(S'167.57'
p3482
S'3.47%'
p3483
tp3484
a(S'161.95'
p3485
S'-11.43%'
p3486
tp3487
a(S'182.86'
p3488
S'0.61%'
p3489
tp3490
a(S'181.76'
p3491
S'3.40%'
p3492
tp3493
a(S'175.79'
p3494
S'-1.69%'
p3495
tp3496
a(S'178.81'
p3497
S'1.14%'
p3498
tp3499
a(S'176.8'
p3500
S'5.03%'
p3501
tp3502
a(S'168.33'
p3503
S'5.64%'
p3504
tp3505
a(S'159.35'
p3506
S'-0.93%'
p3507
tp3508
a(S'160.84'
p3509
S'1.55%'
p3510
tp3511
a(S'158.38'
p3512
S'-1.22%'
p3513
tp3514
a(S'160.33'
p3515
S'-0.84%'
p3516
tp3517
a(S'161.69'
p3518
S'5.91%'
p3519
tp3520
a(S'152.67'
p3521
S'0.62%'
p3522
tp3523
a(S'151.73'
p3524
S'7.03%'
p3525
tp3526
a(S'141.77'
p3527
S'2.28%'
p3528
tp3529
a(S'138.61'
p3530
S'5.14%'
p3531
tp3532
a(S'131.83'
p3533
S'0.01%'
p3534
tp3535
a(S'131.82'
p3536
S'-2.27%'
p3537
tp3538
a(S'134.88'
p3539
S'-1.58%'
p3540
tp3541
a(S'137.04'
p3542
S'3.49%'
p3543
tp3544
a(S'132.42'
p3545
S'0.82%'
p3546
tp3547
a(S'131.34'
p3548
S'3.07%'
p3549
tp3550
a(S'127.43'
p3551
S'1.93%'
p3552
tp3553
a(S'125.02'
p3554
S'2.50%'
p3555
tp3556
a(S'121.97'
p3557
S'2.38%'
p3558
tp3559
a(S'119.14'
p3560
S'-3.80%'
p3561
tp3562
a(S'123.85'
p3563
S'-1.53%'
p3564
tp3565
a(S'125.78'
p3566
S'2.13%'
p3567
tp3568
a(S'123.16'
p3569
S'4.14%'
p3570
tp3571
a(S'118.26'
p3572
S'1.21%'
p3573
tp3574
a(S'116.85'
p3575
S'1.35%'
p3576
tp3577
a(S'115.29'
p3578
S'1.97%'
p3579
tp3580
a(S'113.06'
p3581
S'2.09%'
p3582
tp3583
a(S'110.74'
p3584
S'2.29%'
p3585
tp3586
a(S'108.26'
p3587
S'-1.82%'
p3588
tp3589
a(S'110.27'
p3590
S'1.11%'
p3591
tp3592
a(S'109.06'
p3593
S'2.26%'
p3594
tp3595
a(S'106.65'
p3596
S'5.15%'
p3597
tp3598
a(S'101.43'
p3599
S'3.51%'
p3600
tp3601
a(S'97.99'
p3602
S'2.03%'
p3603
tp3604
a(S'96.04'
p3605
S'1.36%'
p3606
tp3607
a(S'94.75'
p3608
S'0.81%'
p3609
tp3610
a(S'93.99'
p3611
S'3.04%'
p3612
tp3613
a(S'91.22'
p3614
S'-0.74%'
p3615
tp3616
a(S'91.9'
p3617
S'-0.35%'
p3618
tp3619
a(S'92.22'
p3620
S'-2.85%'
p3621
tp3622
a(S'94.93'
p3623
S'0.27%'
p3624
tp3625
a(S'94.67'
p3626
S'0.25%'
p3627
tp3628
a(S'94.43'
p3629
S'1.64%'
p3630
tp3631
a(S'92.91'
p3632
S'1.29%'
p3633
tp3634
a(S'91.73'
p3635
S'-2.31%'
p3636
tp3637
a(S'93.9'
p3638
S'0.57%'
p3639
tp3640
a(S'93.37'
p3641
S'-1.56%'
p3642
tp3643
a(S'94.85'
p3644
S'-3.90%'
p3645
tp3646
a(S'98.7'
p3647
S'-2.47%'
p3648
tp3649
a(S'101.2'
p3650
S'1.20%'
p3651
tp3652
a(S'100'
p3653
S'0.00%'
p3654
tp3655
asS'Credit Suisse Event Driven Hedge Fund Index'
p3656
(lp3657
(S'641.72'
p3658
S'2.75%'
p3659
tp3660
a(S'624.57'
p3661
S'0.29%'
p3662
tp3663
a(S'622.78'
p3664
S'1.61%'
p3665
tp3666
a(S'612.92'
p3667
S'1.68%'
p3668
tp3669
a(S'602.81'
p3670
S'1.45%'
p3671
tp3672
a(S'594.22'
p3673
S'1.45%'
p3674
tp3675
a(S'585.72'
p3676
S'-0.04%'
p3677
tp3678
a(S'585.97'
p3679
S'1.51%'
p3680
tp3681
a(S'577.23'
p3682
S'-1.31%'
p3683
tp3684
a(S'584.9'
p3685
S'2.27%'
p3686
tp3687
a(S'571.89'
p3688
S'1.20%'
p3689
tp3690
a(S'565.13'
p3691
S'2.11%'
p3692
tp3693
a(S'553.46'
p3694
S'0.46%'
p3695
tp3696
a(S'550.95'
p3697
S'2.15%'
p3698
tp3699
a(S'539.36'
p3700
S'1.98%'
p3701
tp3702
a(S'528.91'
p3703
S'0.30%'
p3704
tp3705
a(S'527.35'
p3706
S'0.91%'
p3707
tp3708
a(S'522.57'
p3709
S'1.67%'
p3710
tp3711
a(S'514.01'
p3712
S'1.18%'
p3713
tp3714
a(S'508.03'
p3715
S'0.74%'
p3716
tp3717
a(S'504.28'
p3718
S'-0.18%'
p3719
tp3720
a(S'505.19'
p3721
S'-1.32%'
p3722
tp3723
a(S'511.97'
p3724
S'-0.23%'
p3725
tp3726
a(S'513.13'
p3727
S'0.79%'
p3728
tp3729
a(S'509.12'
p3730
S'1.58%'
p3731
tp3732
a(S'501.19'
p3733
S'2.80%'
p3734
tp3735
a(S'487.52'
p3736
S'-0.81%'
p3737
tp3738
a(S'491.48'
p3739
S'-1.05%'
p3740
tp3741
a(S'496.7'
p3742
S'2.56%'
p3743
tp3744
a(S'484.31'
p3745
S'-5.06%'
p3746
tp3747
a(S'510.13'
p3748
S'-5.37%'
p3749
tp3750
a(S'539.07'
p3751
S'-0.78%'
p3752
tp3753
a(S'543.29'
p3754
S'-2.16%'
p3755
tp3756
a(S'555.28'
p3757
S'-0.61%'
p3758
tp3759
a(S'558.67'
p3760
S'1.14%'
p3761
tp3762
a(S'552.38'
p3763
S'-0.26%'
p3764
tp3765
a(S'553.81'
p3766
S'1.44%'
p3767
tp3768
a(S'545.93'
p3769
S'1.80%'
p3770
tp3771
a(S'536.26'
p3772
S'3.93%'
p3773
tp3774
a(S'516'
p3775
S'0.15%'
p3776
tp3777
a(S'515.25'
p3778
S'1.80%'
p3779
tp3780
a(S'506.16'
p3781
S'3.20%'
p3782
tp3783
a(S'490.46'
p3784
S'-0.40%'
p3785
tp3786
a(S'492.44'
p3787
S'1.56%'
p3788
tp3789
a(S'484.87'
p3790
S'-1.58%'
p3791
tp3792
a(S'492.63'
p3793
S'-3.07%'
p3794
tp3795
a(S'508.24'
p3796
S'1.89%'
p3797
tp3798
a(S'498.81'
p3799
S'2.85%'
p3800
tp3801
a(S'484.99'
p3802
S'0.44%'
p3803
tp3804
a(S'482.88'
p3805
S'1.42%'
p3806
tp3807
a(S'476.13'
p3808
S'2.28%'
p3809
tp3810
a(S'465.51'
p3811
S'2.16%'
p3812
tp3813
a(S'455.65'
p3814
S'0.43%'
p3815
tp3816
a(S'453.69'
p3817
S'2.89%'
p3818
tp3819
a(S'440.93'
p3820
S'2.17%'
p3821
tp3822
a(S'431.56'
p3823
S'2.33%'
p3824
tp3825
a(S'421.74'
p3826
S'1.02%'
p3827
tp3828
a(S'417.5'
p3829
S'4.22%'
p3830
tp3831
a(S'400.6'
p3832
S'1.48%'
p3833
tp3834
a(S'394.76'
p3835
S'0.16%'
p3836
tp3837
a(S'394.12'
p3838
S'-1.13%'
p3839
tp3840
a(S'398.64'
p3841
S'0.79%'
p3842
tp3843
a(S'395.52'
p3844
S'-1.26%'
p3845
tp3846
a(S'400.56'
p3847
S'-3.21%'
p3848
tp3849
a(S'413.85'
p3850
S'-5.09%'
p3851
tp3852
a(S'436.03'
p3853
S'-5.75%'
p3854
tp3855
a(S'462.64'
p3856
S'-0.16%'
p3857
tp3858
a(S'463.36'
p3859
S'-2.53%'
p3860
tp3861
a(S'475.4'
p3862
S'-0.15%'
p3863
tp3864
a(S'476.12'
p3865
S'1.89%'
p3866
tp3867
a(S'467.28'
p3868
S'0.51%'
p3869
tp3870
a(S'464.91'
p3871
S'-1.72%'
p3872
tp3873
a(S'473.03'
p3874
S'0.85%'
p3875
tp3876
a(S'469.06'
p3877
S'-2.44%'
p3878
tp3879
a(S'480.8'
p3880
S'0.32%'
p3881
tp3882
a(S'479.29'
p3883
S'-1.68%'
p3884
tp3885
a(S'487.47'
p3886
S'2.91%'
p3887
tp3888
a(S'473.7'
p3889
S'1.60%'
p3890
tp3891
a(S'466.24'
p3892
S'-1.88%'
p3893
tp3894
a(S'475.16'
p3895
S'0.97%'
p3896
tp3897
a(S'470.61'
p3898
S'0.73%'
p3899
tp3900
a(S'467.21'
p3901
S'3.24%'
p3902
tp3903
a(S'452.55'
p3904
S'1.52%'
p3905
tp3906
a(S'445.79'
p3907
S'1.27%'
p3908
tp3909
a(S'440.22'
p3910
S'1.55%'
p3911
tp3912
a(S'433.5'
p3913
S'2.06%'
p3914
tp3915
a(S'424.74'
p3916
S'1.58%'
p3917
tp3918
a(S'418.12'
p3919
S'2.09%'
p3920
tp3921
a(S'409.57'
p3922
S'2.23%'
p3923
tp3924
a(S'400.65'
p3925
S'0.60%'
p3926
tp3927
a(S'398.28'
p3928
S'1.05%'
p3929
tp3930
a(S'394.14'
p3931
S'0.04%'
p3932
tp3933
a(S'393.99'
p3934
S'0.75%'
p3935
tp3936
a(S'391.07'
p3937
S'-0.09%'
p3938
tp3939
a(S'391.41'
p3940
S'1.75%'
p3941
tp3942
a(S'384.69'
p3943
S'1.50%'
p3944
tp3945
a(S'379.02'
p3946
S'0.34%'
p3947
tp3948
a(S'377.73'
p3949
S'2.92%'
p3950
tp3951
a(S'367.02'
p3952
S'1.45%'
p3953
tp3954
a(S'361.76'
p3955
S'1.28%'
p3956
tp3957
a(S'357.2'
p3958
S'-1.82%'
p3959
tp3960
a(S'363.81'
p3961
S'1.07%'
p3962
tp3963
a(S'359.95'
p3964
S'0.85%'
p3965
tp3966
a(S'356.91'
p3967
S'2.27%'
p3968
tp3969
a(S'349'
p3970
S'1.29%'
p3971
tp3972
a(S'344.56'
p3973
S'0.55%'
p3974
tp3975
a(S'342.66'
p3976
S'-0.64%'
p3977
tp3978
a(S'344.87'
p3979
S'0.57%'
p3980
tp3981
a(S'342.9'
p3982
S'1.59%'
p3983
tp3984
a(S'337.54'
p3985
S'0.20%'
p3986
tp3987
a(S'336.86'
p3988
S'2.28%'
p3989
tp3990
a(S'329.36'
p3991
S'3.27%'
p3992
tp3993
a(S'318.92'
p3994
S'1.24%'
p3995
tp3996
a(S'315.02'
p3997
S'1.27%'
p3998
tp3999
a(S'311.08'
p4000
S'0.45%'
p4001
tp4002
a(S'309.68'
p4003
S'0.00%'
p4004
tp4005
a(S'309.67'
p4006
S'0.96%'
p4007
tp4008
a(S'306.72'
p4009
S'0.09%'
p4010
tp4011
a(S'306.43'
p4012
S'0.51%'
p4013
tp4014
a(S'304.86'
p4015
S'0.45%'
p4016
tp4017
a(S'303.49'
p4018
S'0.95%'
p4019
tp4020
a(S'300.64'
p4021
S'2.16%'
p4022
tp4023
a(S'294.29'
p4024
S'1.49%'
p4025
tp4026
a(S'289.98'
p4027
S'1.21%'
p4028
tp4029
a(S'286.51'
p4030
S'1.53%'
p4031
tp4032
a(S'282.18'
p4033
S'1.80%'
p4034
tp4035
a(S'277.19'
p4036
S'0.86%'
p4037
tp4038
a(S'274.83'
p4039
S'0.95%'
p4040
tp4041
a(S'272.25'
p4042
S'1.80%'
p4043
tp4044
a(S'267.43'
p4045
S'2.35%'
p4046
tp4047
a(S'261.29'
p4048
S'2.51%'
p4049
tp4050
a(S'254.88'
p4051
S'1.01%'
p4052
tp4053
a(S'252.34'
p4054
S'0.63%'
p4055
tp4056
a(S'250.76'
p4057
S'2.27%'
p4058
tp4059
a(S'245.2'
p4060
S'0.99%'
p4061
tp4062
a(S'242.8'
p4063
S'2.57%'
p4064
tp4065
a(S'236.72'
p4066
S'-0.18%'
p4067
tp4068
a(S'237.14'
p4069
S'-0.20%'
p4070
tp4071
a(S'237.61'
p4072
S'0.27%'
p4073
tp4074
a(S'236.97'
p4075
S'-3.10%'
p4076
tp4077
a(S'244.56'
p4078
S'-2.93%'
p4079
tp4080
a(S'251.93'
p4081
S'0.12%'
p4082
tp4083
a(S'251.64'
p4084
S'0.74%'
p4085
tp4086
a(S'249.8'
p4087
S'1.19%'
p4088
tp4089
a(S'246.87'
p4090
S'-0.34%'
p4091
tp4092
a(S'247.71'
p4093
S'1.18%'
p4094
tp4095
a(S'244.81'
p4096
S'1.07%'
p4097
tp4098
a(S'242.22'
p4099
S'0.85%'
p4100
tp4101
a(S'240.19'
p4102
S'1.35%'
p4103
tp4104
a(S'236.98'
p4105
S'-1.54%'
p4106
tp4107
a(S'240.69'
p4108
S'1.55%'
p4109
tp4110
a(S'237.01'
p4111
S'0.47%'
p4112
tp4113
a(S'235.89'
p4114
S'1.03%'
p4115
tp4116
a(S'233.49'
p4117
S'1.10%'
p4118
tp4119
a(S'230.94'
p4120
S'0.93%'
p4121
tp4122
a(S'228.82'
p4123
S'0.12%'
p4124
tp4125
a(S'228.55'
p4126
S'1.59%'
p4127
tp4128
a(S'224.98'
p4129
S'2.46%'
p4130
tp4131
a(S'219.57'
p4132
S'0.42%'
p4133
tp4134
a(S'218.65'
p4135
S'-0.77%'
p4136
tp4137
a(S'220.34'
p4138
S'-0.05%'
p4139
tp4140
a(S'220.44'
p4141
S'0.61%'
p4142
tp4143
a(S'219.1'
p4144
S'1.71%'
p4145
tp4146
a(S'215.41'
p4147
S'0.50%'
p4148
tp4149
a(S'214.34'
p4150
S'1.94%'
p4151
tp4152
a(S'210.27'
p4153
S'0.02%'
p4154
tp4155
a(S'210.22'
p4156
S'-0.73%'
p4157
tp4158
a(S'211.77'
p4159
S'0.60%'
p4160
tp4161
a(S'210.5'
p4162
S'2.30%'
p4163
tp4164
a(S'205.76'
p4165
S'0.51%'
p4166
tp4167
a(S'204.71'
p4168
S'3.09%'
p4169
tp4170
a(S'198.57'
p4171
S'2.04%'
p4172
tp4173
a(S'194.6'
p4174
S'0.35%'
p4175
tp4176
a(S'193.92'
p4177
S'1.04%'
p4178
tp4179
a(S'191.93'
p4180
S'0.11%'
p4181
tp4182
a(S'191.72'
p4183
S'1.32%'
p4184
tp4185
a(S'189.23'
p4186
S'2.93%'
p4187
tp4188
a(S'183.85'
p4189
S'2.17%'
p4190
tp4191
a(S'179.94'
p4192
S'3.07%'
p4193
tp4194
a(S'174.58'
p4195
S'2.39%'
p4196
tp4197
a(S'170.5'
p4198
S'-0.05%'
p4199
tp4200
a(S'170.58'
p4201
S'1.88%'
p4202
tp4203
a(S'167.44'
p4204
S'1.70%'
p4205
tp4206
a(S'164.64'
p4207
S'2.77%'
p4208
tp4209
a(S'160.21'
p4210
S'0.66%'
p4211
tp4212
a(S'159.16'
p4213
S'-2.96%'
p4214
tp4215
a(S'164.02'
p4216
S'-11.77%'
p4217
tp4218
a(S'185.91'
p4219
S'0.04%'
p4220
tp4221
a(S'185.83'
p4222
S'-0.79%'
p4223
tp4224
a(S'187.31'
p4225
S'-1.20%'
p4226
tp4227
a(S'189.58'
p4228
S'0.73%'
p4229
tp4230
a(S'188.2'
p4231
S'2.48%'
p4232
tp4233
a(S'183.65'
p4234
S'2.56%'
p4235
tp4236
a(S'179.07'
p4237
S'1.73%'
p4238
tp4239
a(S'176.02'
p4240
S'1.91%'
p4241
tp4242
a(S'172.72'
p4243
S'1.33%'
p4244
tp4245
a(S'170.46'
p4246
S'0.45%'
p4247
tp4248
a(S'169.7'
p4249
S'2.50%'
p4250
tp4251
a(S'165.56'
p4252
S'-0.26%'
p4253
tp4254
a(S'165.99'
p4255
S'3.58%'
p4256
tp4257
a(S'160.25'
p4258
S'1.70%'
p4259
tp4260
a(S'157.57'
p4261
S'2.91%'
p4262
tp4263
a(S'153.11'
p4264
S'0.33%'
p4265
tp4266
a(S'152.6'
p4267
S'0.18%'
p4268
tp4269
a(S'152.33'
p4270
S'1.49%'
p4271
tp4272
a(S'150.1'
p4273
S'2.30%'
p4274
tp4275
a(S'146.73'
p4276
S'1.88%'
p4277
tp4278
a(S'144.02'
p4279
S'2.54%'
p4280
tp4281
a(S'140.45'
p4282
S'1.39%'
p4283
tp4284
a(S'138.52'
p4285
S'2.23%'
p4286
tp4287
a(S'135.5'
p4288
S'2.16%'
p4289
tp4290
a(S'132.63'
p4291
S'0.24%'
p4292
tp4293
a(S'132.31'
p4294
S'1.00%'
p4295
tp4296
a(S'131'
p4297
S'1.66%'
p4298
tp4299
a(S'128.86'
p4300
S'2.57%'
p4301
tp4302
a(S'125.63'
p4303
S'1.22%'
p4304
tp4305
a(S'124.11'
p4306
S'0.58%'
p4307
tp4308
a(S'123.39'
p4309
S'3.49%'
p4310
tp4311
a(S'119.23'
p4312
S'2.18%'
p4313
tp4314
a(S'116.69'
p4315
S'1.13%'
p4316
tp4317
a(S'115.39'
p4318
S'-0.26%'
p4319
tp4320
a(S'115.69'
p4321
S'1.87%'
p4322
tp4323
a(S'113.57'
p4324
S'1.54%'
p4325
tp4326
a(S'111.85'
p4327
S'2.25%'
p4328
tp4329
a(S'109.39'
p4330
S'1.30%'
p4331
tp4332
a(S'107.99'
p4333
S'1.13%'
p4334
tp4335
a(S'106.78'
p4336
S'2.10%'
p4337
tp4338
a(S'104.58'
p4339
S'0.85%'
p4340
tp4341
a(S'103.7'
p4342
S'2.41%'
p4343
tp4344
a(S'101.26'
p4345
S'0.51%'
p4346
tp4347
a(S'100.75'
p4348
S'-0.78%'
p4349
tp4350
a(S'101.54'
p4351
S'-1.06%'
p4352
tp4353
a(S'102.63'
p4354
S'-0.73%'
p4355
tp4356
a(S'103.38'
p4357
S'0.75%'
p4358
tp4359
a(S'102.61'
p4360
S'0.82%'
p4361
tp4362
a(S'101.78'
p4363
S'0.54%'
p4364
tp4365
a(S'101.23'
p4366
S'-0.13%'
p4367
tp4368
a(S'101.36'
p4369
S'-0.15%'
p4370
tp4371
a(S'101.51'
p4372
S'-0.66%'
p4373
tp4374
a(S'102.18'
p4375
S'-1.29%'
p4376
tp4377
a(S'103.52'
p4378
S'-0.15%'
p4379
tp4380
a(S'103.68'
p4381
S'3.68%'
p4382
tp4383
a(S'100'
p4384
S'0.00%'
p4385
tp4386
asS'Credit Suisse Global Macro Hedge Fund Index'
p4387
(lp4388
(S'853.29'
p4389
S'0.69%'
p4390
tp4391
a(S'847.46'
p4392
S'-1.05%'
p4393
tp4394
a(S'856.49'
p4395
S'0.71%'
p4396
tp4397
a(S'850.48'
p4398
S'1.03%'
p4399
tp4400
a(S'841.81'
p4401
S'1.01%'
p4402
tp4403
a(S'833.36'
p4404
S'0.84%'
p4405
tp4406
a(S'826.43'
p4407
S'-0.92%'
p4408
tp4409
a(S'834.14'
p4410
S'0.26%'
p4411
tp4412
a(S'831.95'
p4413
S'-2.48%'
p4414
tp4415
a(S'853.12'
p4416
S'-0.05%'
p4417
tp4418
a(S'853.56'
p4419
S'1.77%'
p4420
tp4421
a(S'838.74'
p4422
S'0.97%'
p4423
tp4424
a(S'830.68'
p4425
S'0.29%'
p4426
tp4427
a(S'828.24'
p4428
S'0.88%'
p4429
tp4430
a(S'821'
p4431
S'1.27%'
p4432
tp4433
a(S'810.7'
p4434
S'0.72%'
p4435
tp4436
a(S'804.9'
p4437
S'-0.73%'
p4438
tp4439
a(S'810.82'
p4440
S'0.60%'
p4441
tp4442
a(S'805.99'
p4443
S'0.38%'
p4444
tp4445
a(S'802.96'
p4446
S'2.14%'
p4447
tp4448
a(S'786.12'
p4449
S'-1.37%'
p4450
tp4451
a(S'797.05'
p4452
S'0.19%'
p4453
tp4454
a(S'795.5'
p4455
S'-0.25%'
p4456
tp4457
a(S'797.48'
p4458
S'-0.43%'
p4459
tp4460
a(S'800.89'
p4461
S'0.79%'
p4462
tp4463
a(S'794.64'
p4464
S'1.22%'
p4465
tp4466
a(S'785.06'
p4467
S'0.43%'
p4468
tp4469
a(S'781.7'
p4470
S'-0.03%'
p4471
tp4472
a(S'781.92'
p4473
S'0.18%'
p4474
tp4475
a(S'780.51'
p4476
S'-0.07%'
p4477
tp4478
a(S'781.05'
p4479
S'1.91%'
p4480
tp4481
a(S'766.42'
p4482
S'2.53%'
p4483
tp4484
a(S'747.53'
p4485
S'-1.11%'
p4486
tp4487
a(S'755.94'
p4488
S'-0.63%'
p4489
tp4490
a(S'760.7'
p4491
S'2.46%'
p4492
tp4493
a(S'742.41'
p4494
S'0.15%'
p4495
tp4496
a(S'741.28'
p4497
S'1.28%'
p4498
tp4499
a(S'731.91'
p4500
S'-0.77%'
p4501
tp4502
a(S'737.58'
p4503
S'2.67%'
p4504
tp4505
a(S'718.41'
p4506
S'-0.52%'
p4507
tp4508
a(S'722.14'
p4509
S'1.62%'
p4510
tp4511
a(S'710.64'
p4512
S'2.72%'
p4513
tp4514
a(S'691.8'
p4515
S'1.48%'
p4516
tp4517
a(S'681.7'
p4518
S'0.65%'
p4519
tp4520
a(S'677.29'
p4521
S'0.56%'
p4522
tp4523
a(S'673.49'
p4524
S'-0.63%'
p4525
tp4526
a(S'677.74'
p4527
S'1.65%'
p4528
tp4529
a(S'666.71'
p4530
S'0.38%'
p4531
tp4532
a(S'664.17'
p4533
S'1.10%'
p4534
tp4535
a(S'656.95'
p4536
S'1.07%'
p4537
tp4538
a(S'650'
p4539
S'-1.43%'
p4540
tp4541
a(S'659.42'
p4542
S'3.52%'
p4543
tp4544
a(S'636.99'
p4545
S'0.21%'
p4546
tp4547
a(S'635.64'
p4548
S'2.77%'
p4549
tp4550
a(S'618.52'
p4551
S'0.86%'
p4552
tp4553
a(S'613.24'
p4554
S'1.78%'
p4555
tp4556
a(S'602.52'
p4557
S'-0.85%'
p4558
tp4559
a(S'607.68'
p4560
S'1.47%'
p4561
tp4562
a(S'598.86'
p4563
S'0.19%'
p4564
tp4565
a(S'597.7'
p4566
S'0.03%'
p4567
tp4568
a(S'597.54'
p4569
S'0.21%'
p4570
tp4571
a(S'596.27'
p4572
S'2.33%'
p4573
tp4574
a(S'582.69'
p4575
S'1.11%'
p4576
tp4577
a(S'576.3'
p4578
S'1.54%'
p4579
tp4580
a(S'567.56'
p4581
S'-5.13%'
p4582
tp4583
a(S'598.28'
p4584
S'-6.63%'
p4585
tp4586
a(S'640.79'
p4587
S'-1.37%'
p4588
tp4589
a(S'649.67'
p4590
S'-2.64%'
p4591
tp4592
a(S'667.27'
p4593
S'2.00%'
p4594
tp4595
a(S'654.18'
p4596
S'1.80%'
p4597
tp4598
a(S'642.6'
p4599
S'-1.59%'
p4600
tp4601
a(S'652.97'
p4602
S'-1.70%'
p4603
tp4604
a(S'664.25'
p4605
S'4.11%'
p4606
tp4607
a(S'638.05'
p4608
S'4.44%'
p4609
tp4610
a(S'610.92'
p4611
S'1.50%'
p4612
tp4613
a(S'601.87'
p4614
S'-0.17%'
p4615
tp4616
a(S'602.89'
p4617
S'2.72%'
p4618
tp4619
a(S'586.95'
p4620
S'4.10%'
p4621
tp4622
a(S'563.82'
p4623
S'-0.62%'
p4624
tp4625
a(S'567.32'
p4626
S'0.96%'
p4627
tp4628
a(S'561.93'
p4629
S'1.22%'
p4630
tp4631
a(S'555.18'
p4632
S'1.79%'
p4633
tp4634
a(S'545.43'
p4635
S'1.71%'
p4636
tp4637
a(S'536.26'
p4638
S'1.21%'
p4639
tp4640
a(S'529.87'
p4641
S'0.50%'
p4642
tp4643
a(S'527.26'
p4644
S'1.29%'
p4645
tp4646
a(S'520.55'
p4647
S'1.36%'
p4648
tp4649
a(S'513.57'
p4650
S'1.44%'
p4651
tp4652
a(S'506.3'
p4653
S'1.08%'
p4654
tp4655
a(S'500.88'
p4656
S'0.02%'
p4657
tp4658
a(S'500.8'
p4659
S'-0.77%'
p4660
tp4661
a(S'504.7'
p4662
S'1.36%'
p4663
tp4664
a(S'497.91'
p4665
S'0.44%'
p4666
tp4667
a(S'495.75'
p4668
S'-0.60%'
p4669
tp4670
a(S'498.74'
p4671
S'2.86%'
p4672
tp4673
a(S'484.86'
p4674
S'1.06%'
p4675
tp4676
a(S'479.76'
p4677
S'1.23%'
p4678
tp4679
a(S'473.94'
p4680
S'3.37%'
p4681
tp4682
a(S'458.5'
p4683
S'1.58%'
p4684
tp4685
a(S'451.35'
p4686
S'1.08%'
p4687
tp4688
a(S'446.53'
p4689
S'-0.86%'
p4690
tp4691
a(S'450.41'
p4692
S'2.43%'
p4693
tp4694
a(S'439.74'
p4695
S'0.71%'
p4696
tp4697
a(S'436.65'
p4698
S'1.04%'
p4699
tp4700
a(S'432.15'
p4701
S'0.52%'
p4702
tp4703
a(S'429.91'
p4704
S'0.07%'
p4705
tp4706
a(S'429.62'
p4707
S'-0.25%'
p4708
tp4709
a(S'430.69'
p4710
S'0.51%'
p4711
tp4712
a(S'428.49'
p4713
S'1.40%'
p4714
tp4715
a(S'422.59'
p4716
S'0.69%'
p4717
tp4718
a(S'419.68'
p4719
S'0.72%'
p4720
tp4721
a(S'416.69'
p4722
S'2.42%'
p4723
tp4724
a(S'406.86'
p4725
S'1.22%'
p4726
tp4727
a(S'401.95'
p4728
S'-0.49%'
p4729
tp4730
a(S'403.91'
p4731
S'-0.75%'
p4732
tp4733
a(S'406.98'
p4734
S'0.82%'
p4735
tp4736
a(S'403.65'
p4737
S'0.48%'
p4738
tp4739
a(S'401.71'
p4740
S'0.05%'
p4741
tp4742
a(S'401.52'
p4743
S'0.14%'
p4744
tp4745
a(S'400.95'
p4746
S'0.97%'
p4747
tp4748
a(S'397.08'
p4749
S'1.19%'
p4750
tp4751
a(S'392.42'
p4752
S'1.45%'
p4753
tp4754
a(S'386.82'
p4755
S'1.86%'
p4756
tp4757
a(S'379.77'
p4758
S'0.55%'
p4759
tp4760
a(S'377.7'
p4761
S'0.09%'
p4762
tp4763
a(S'377.36'
p4764
S'3.04%'
p4765
tp4766
a(S'366.22'
p4767
S'1.30%'
p4768
tp4769
a(S'361.51'
p4770
S'-0.11%'
p4771
tp4772
a(S'361.89'
p4773
S'1.63%'
p4774
tp4775
a(S'356.07'
p4776
S'2.96%'
p4777
tp4778
a(S'345.82'
p4779
S'2.16%'
p4780
tp4781
a(S'338.52'
p4782
S'-0.66%'
p4783
tp4784
a(S'340.76'
p4785
S'1.87%'
p4786
tp4787
a(S'334.49'
p4788
S'2.03%'
p4789
tp4790
a(S'327.84'
p4791
S'0.85%'
p4792
tp4793
a(S'325.07'
p4794
S'1.23%'
p4795
tp4796
a(S'321.13'
p4797
S'0.72%'
p4798
tp4799
a(S'318.85'
p4800
S'0.76%'
p4801
tp4802
a(S'316.46'
p4803
S'1.22%'
p4804
tp4805
a(S'312.64'
p4806
S'2.15%'
p4807
tp4808
a(S'306.06'
p4809
S'1.42%'
p4810
tp4811
a(S'301.77'
p4812
S'0.78%'
p4813
tp4814
a(S'299.43'
p4815
S'1.70%'
p4816
tp4817
a(S'294.43'
p4818
S'-0.19%'
p4819
tp4820
a(S'295'
p4821
S'0.52%'
p4822
tp4823
a(S'293.46'
p4824
S'2.64%'
p4825
tp4826
a(S'285.92'
p4827
S'2.47%'
p4828
tp4829
a(S'279.02'
p4830
S'-0.37%'
p4831
tp4832
a(S'280.05'
p4833
S'1.18%'
p4834
tp4835
a(S'276.79'
p4836
S'1.17%'
p4837
tp4838
a(S'273.59'
p4839
S'1.00%'
p4840
tp4841
a(S'270.89'
p4842
S'0.69%'
p4843
tp4844
a(S'269.03'
p4845
S'1.03%'
p4846
tp4847
a(S'266.28'
p4848
S'2.14%'
p4849
tp4850
a(S'260.69'
p4851
S'0.69%'
p4852
tp4853
a(S'258.9'
p4854
S'2.74%'
p4855
tp4856
a(S'252'
p4857
S'0.99%'
p4858
tp4859
a(S'249.53'
p4860
S'3.32%'
p4861
tp4862
a(S'241.52'
p4863
S'5.05%'
p4864
tp4865
a(S'229.92'
p4866
S'3.63%'
p4867
tp4868
a(S'221.87'
p4869
S'1.26%'
p4870
tp4871
a(S'219.11'
p4872
S'-0.87%'
p4873
tp4874
a(S'221.04'
p4875
S'2.92%'
p4876
tp4877
a(S'214.76'
p4878
S'1.81%'
p4879
tp4880
a(S'210.94'
p4881
S'1.32%'
p4882
tp4883
a(S'208.19'
p4884
S'2.32%'
p4885
tp4886
a(S'203.47'
p4887
S'-5.35%'
p4888
tp4889
a(S'214.98'
p4890
S'-2.45%'
p4891
tp4892
a(S'220.39'
p4893
S'4.43%'
p4894
tp4895
a(S'211.04'
p4896
S'-2.42%'
p4897
tp4898
a(S'216.28'
p4899
S'9.24%'
p4900
tp4901
a(S'197.99'
p4902
S'4.40%'
p4903
tp4904
a(S'189.64'
p4905
S'2.44%'
p4906
tp4907
a(S'185.12'
p4908
S'-3.18%'
p4909
tp4910
a(S'191.21'
p4911
S'-2.85%'
p4912
tp4913
a(S'196.81'
p4914
S'-1.91%'
p4915
tp4916
a(S'200.65'
p4917
S'3.02%'
p4918
tp4919
a(S'194.77'
p4920
S'-0.05%'
p4921
tp4922
a(S'194.87'
p4923
S'1.79%'
p4924
tp4925
a(S'191.45'
p4926
S'-2.00%'
p4927
tp4928
a(S'195.35'
p4929
S'-1.60%'
p4930
tp4931
a(S'198.52'
p4932
S'-2.88%'
p4933
tp4934
a(S'204.4'
p4935
S'2.34%'
p4936
tp4937
a(S'199.73'
p4938
S'-1.08%'
p4939
tp4940
a(S'201.92'
p4941
S'-11.55%'
p4942
tp4943
a(S'228.29'
p4944
S'-5.12%'
p4945
tp4946
a(S'240.62'
p4947
S'-4.84%'
p4948
tp4949
a(S'252.85'
p4950
S'1.80%'
p4951
tp4952
a(S'248.39'
p4953
S'3.28%'
p4954
tp4955
a(S'240.51'
p4956
S'3.37%'
p4957
tp4958
a(S'232.66'
p4959
S'1.57%'
p4960
tp4961
a(S'229.06'
p4962
S'10.16%'
p4963
tp4964
a(S'207.94'
p4965
S'0.21%'
p4966
tp4967
a(S'207.51'
p4968
S'-2.18%'
p4969
tp4970
a(S'212.13'
p4971
S'5.14%'
p4972
tp4973
a(S'201.76'
p4974
S'3.46%'
p4975
tp4976
a(S'195.01'
p4977
S'-1.89%'
p4978
tp4979
a(S'198.76'
p4980
S'4.63%'
p4981
tp4982
a(S'189.97'
p4983
S'-2.41%'
p4984
tp4985
a(S'194.67'
p4986
S'10.13%'
p4987
tp4988
a(S'176.76'
p4989
S'2.10%'
p4990
tp4991
a(S'173.12'
p4992
S'-2.02%'
p4993
tp4994
a(S'176.69'
p4995
S'5.95%'
p4996
tp4997
a(S'166.76'
p4998
S'-2.17%'
p4999
tp5000
a(S'170.46'
p5001
S'1.82%'
p5002
tp5003
a(S'167.42'
p5004
S'8.21%'
p5005
tp5006
a(S'154.72'
p5007
S'-0.76%'
p5008
tp5009
a(S'155.91'
p5010
S'8.13%'
p5011
tp5012
a(S'144.19'
p5013
S'5.31%'
p5014
tp5015
a(S'136.92'
p5016
S'3.01%'
p5017
tp5018
a(S'132.92'
p5019
S'2.93%'
p5020
tp5021
a(S'129.14'
p5022
S'-6.97%'
p5023
tp5024
a(S'138.82'
p5025
S'3.23%'
p5026
tp5027
a(S'134.47'
p5028
S'1.99%'
p5029
tp5030
a(S'131.85'
p5031
S'3.00%'
p5032
tp5033
a(S'128.01'
p5034
S'1.22%'
p5035
tp5036
a(S'126.47'
p5037
S'-7.07%'
p5038
tp5039
a(S'136.09'
p5040
S'10.46%'
p5041
tp5042
a(S'123.2'
p5043
S'4.05%'
p5044
tp5045
a(S'118.41'
p5046
S'4.87%'
p5047
tp5048
a(S'112.91'
p5049
S'1.00%'
p5050
tp5051
a(S'111.79'
p5052
S'0.20%'
p5053
tp5054
a(S'111.57'
p5055
S'10.60%'
p5056
tp5057
a(S'100.88'
p5058
S'2.24%'
p5059
tp5060
a(S'98.67'
p5061
S'-0.68%'
p5062
tp5063
a(S'99.35'
p5064
S'0.99%'
p5065
tp5066
a(S'98.38'
p5067
S'0.91%'
p5068
tp5069
a(S'97.49'
p5070
S'5.96%'
p5071
tp5072
a(S'92.01'
p5073
S'0.07%'
p5074
tp5075
a(S'91.95'
p5076
S'-2.47%'
p5077
tp5078
a(S'94.28'
p5079
S'0.50%'
p5080
tp5081
a(S'93.81'
p5082
S'2.09%'
p5083
tp5084
a(S'91.89'
p5085
S'-2.22%'
p5086
tp5087
a(S'93.98'
p5088
S'0.25%'
p5089
tp5090
a(S'93.75'
p5091
S'2.75%'
p5092
tp5093
a(S'91.24'
p5094
S'-0.35%'
p5095
tp5096
a(S'91.56'
p5097
S'-0.92%'
p5098
tp5099
a(S'92.41'
p5100
S'3.80%'
p5101
tp5102
a(S'89.03'
p5103
S'-1.59%'
p5104
tp5105
a(S'90.47'
p5106
S'-4.27%'
p5107
tp5108
a(S'94.51'
p5109
S'-5.65%'
p5110
tp5111
a(S'100.17'
p5112
S'0.17%'
p5113
tp5114
a(S'100'
p5115
S'0.00%'
p5116
tp5117
asS'Credit Suisse Event Driven Risk Arbitrage Hedge Fund Index'
p5118
(lp5119
(S'353.73'
p5120
S'0.93%'
p5121
tp5122
a(S'350.48'
p5123
S'0.49%'
p5124
tp5125
a(S'348.76'
p5126
S'0.39%'
p5127
tp5128
a(S'347.41'
p5129
S'0.10%'
p5130
tp5131
a(S'347.05'
p5132
S'0.57%'
p5133
tp5134
a(S'345.1'
p5135
S'0.81%'
p5136
tp5137
a(S'342.32'
p5138
S'0.01%'
p5139
tp5140
a(S'342.29'
p5141
S'0.99%'
p5142
tp5143
a(S'338.92'
p5144
S'0.17%'
p5145
tp5146
a(S'338.34'
p5147
S'0.80%'
p5148
tp5149
a(S'335.67'
p5150
S'0.65%'
p5151
tp5152
a(S'333.51'
p5153
S'0.39%'
p5154
tp5155
a(S'332.2'
p5156
S'-0.06%'
p5157
tp5158
a(S'332.4'
p5159
S'-0.03%'
p5160
tp5161
a(S'332.5'
p5162
S'1.51%'
p5163
tp5164
a(S'327.55'
p5165
S'1.05%'
p5166
tp5167
a(S'324.15'
p5168
S'-0.77%'
p5169
tp5170
a(S'326.65'
p5171
S'0.41%'
p5172
tp5173
a(S'325.31'
p5174
S'0.52%'
p5175
tp5176
a(S'323.62'
p5177
S'-0.51%'
p5178
tp5179
a(S'325.29'
p5180
S'0.53%'
p5181
tp5182
a(S'323.56'
p5183
S'-1.53%'
p5184
tp5185
a(S'328.58'
p5186
S'-0.47%'
p5187
tp5188
a(S'330.12'
p5189
S'0.18%'
p5190
tp5191
a(S'329.52'
p5192
S'0.92%'
p5193
tp5194
a(S'326.5'
p5195
S'0.97%'
p5196
tp5197
a(S'323.37'
p5198
S'-0.39%'
p5199
tp5200
a(S'324.62'
p5201
S'-0.27%'
p5202
tp5203
a(S'325.5'
p5204
S'1.91%'
p5205
tp5206
a(S'319.39'
p5207
S'-1.63%'
p5208
tp5209
a(S'324.67'
p5210
S'-0.92%'
p5211
tp5212
a(S'327.69'
p5213
S'-0.77%'
p5214
tp5215
a(S'330.23'
p5216
S'-0.04%'
p5217
tp5218
a(S'330.37'
p5219
S'-1.05%'
p5220
tp5221
a(S'333.88'
p5222
S'1.74%'
p5223
tp5224
a(S'328.18'
p5225
S'0.59%'
p5226
tp5227
a(S'326.24'
p5228
S'0.79%'
p5229
tp5230
a(S'323.67'
p5231
S'0.89%'
p5232
tp5233
a(S'320.8'
p5234
S'1.14%'
p5235
tp5236
a(S'317.18'
p5237
S'-1.44%'
p5238
tp5239
a(S'321.81'
p5240
S'-0.62%'
p5241
tp5242
a(S'323.82'
p5243
S'2.31%'
p5244
tp5245
a(S'316.5'
p5246
S'0.31%'
p5247
tp5248
a(S'315.51'
p5249
S'1.61%'
p5250
tp5251
a(S'310.52'
p5252
S'0.10%'
p5253
tp5254
a(S'310.2'
p5255
S'-1.52%'
p5256
tp5257
a(S'314.99'
p5258
S'-0.10%'
p5259
tp5260
a(S'315.29'
p5261
S'0.69%'
p5262
tp5263
a(S'313.14'
p5264
S'0.30%'
p5265
tp5266
a(S'312.19'
p5267
S'0.40%'
p5268
tp5269
a(S'310.94'
p5270
S'0.38%'
p5271
tp5272
a(S'309.76'
p5273
S'1.03%'
p5274
tp5275
a(S'306.59'
p5276
S'0.16%'
p5277
tp5278
a(S'306.11'
p5279
S'1.60%'
p5280
tp5281
a(S'301.3'
p5282
S'0.95%'
p5283
tp5284
a(S'298.46'
p5285
S'1.12%'
p5286
tp5287
a(S'295.16'
p5288
S'0.89%'
p5289
tp5290
a(S'292.57'
p5291
S'1.85%'
p5292
tp5293
a(S'287.26'
p5294
S'0.72%'
p5295
tp5296
a(S'285.22'
p5297
S'1.65%'
p5298
tp5299
a(S'280.6'
p5300
S'0.69%'
p5301
tp5302
a(S'278.68'
p5303
S'0.38%'
p5304
tp5305
a(S'277.63'
p5306
S'1.60%'
p5307
tp5308
a(S'273.26'
p5309
S'-0.02%'
p5310
tp5311
a(S'273.31'
p5312
S'-3.06%'
p5313
tp5314
a(S'281.93'
p5315
S'-3.49%'
p5316
tp5317
a(S'292.13'
p5318
S'-1.16%'
p5319
tp5320
a(S'295.57'
p5321
S'-0.39%'
p5322
tp5323
a(S'296.74'
p5324
S'-0.12%'
p5325
tp5326
a(S'297.11'
p5327
S'-0.18%'
p5328
tp5329
a(S'297.64'
p5330
S'0.88%'
p5331
tp5332
a(S'295.04'
p5333
S'1.62%'
p5334
tp5335
a(S'290.35'
p5336
S'1.26%'
p5337
tp5338
a(S'286.73'
p5339
S'-0.10%'
p5340
tp5341
a(S'287.01'
p5342
S'-0.63%'
p5343
tp5344
a(S'288.83'
p5345
S'-0.80%'
p5346
tp5347
a(S'291.15'
p5348
S'2.13%'
p5349
tp5350
a(S'285.08'
p5351
S'3.22%'
p5352
tp5353
a(S'276.2'
p5354
S'-0.65%'
p5355
tp5356
a(S'278.01'
p5357
S'0.43%'
p5358
tp5359
a(S'276.83'
p5360
S'0.00%'
p5361
tp5362
a(S'276.84'
p5363
S'0.04%'
p5364
tp5365
a(S'276.73'
p5366
S'2.15%'
p5367
tp5368
a(S'270.9'
p5369
S'1.29%'
p5370
tp5371
a(S'267.44'
p5372
S'1.15%'
p5373
tp5374
a(S'264.4'
p5375
S'0.20%'
p5376
tp5377
a(S'263.87'
p5378
S'0.49%'
p5379
tp5380
a(S'262.58'
p5381
S'3.01%'
p5382
tp5383
a(S'254.9'
p5384
S'-0.16%'
p5385
tp5386
a(S'255.32'
p5387
S'0.22%'
p5388
tp5389
a(S'254.77'
p5390
S'0.35%'
p5391
tp5392
a(S'253.87'
p5393
S'0.46%'
p5394
tp5395
a(S'252.71'
p5396
S'0.20%'
p5397
tp5398
a(S'252.2'
p5399
S'-0.15%'
p5400
tp5401
a(S'252.57'
p5402
S'0.30%'
p5403
tp5404
a(S'251.81'
p5405
S'0.97%'
p5406
tp5407
a(S'249.39'
p5408
S'0.58%'
p5409
tp5410
a(S'247.96'
p5411
S'1.63%'
p5412
tp5413
a(S'243.99'
p5414
S'0.85%'
p5415
tp5416
a(S'241.93'
p5417
S'1.01%'
p5418
tp5419
a(S'239.5'
p5420
S'-1.12%'
p5421
tp5422
a(S'242.22'
p5423
S'0.23%'
p5424
tp5425
a(S'241.67'
p5426
S'0.60%'
p5427
tp5428
a(S'240.22'
p5429
S'0.46%'
p5430
tp5431
a(S'239.13'
p5432
S'0.79%'
p5433
tp5434
a(S'237.26'
p5435
S'0.32%'
p5436
tp5437
a(S'236.5'
p5438
S'-0.54%'
p5439
tp5440
a(S'237.79'
p5441
S'0.09%'
p5442
tp5443
a(S'237.57'
p5444
S'0.46%'
p5445
tp5446
a(S'236.49'
p5447
S'-0.09%'
p5448
tp5449
a(S'236.71'
p5450
S'1.32%'
p5451
tp5452
a(S'233.63'
p5453
S'1.67%'
p5454
tp5455
a(S'229.79'
p5456
S'0.92%'
p5457
tp5458
a(S'227.69'
p5459
S'0.63%'
p5460
tp5461
a(S'226.26'
p5462
S'0.18%'
p5463
tp5464
a(S'225.86'
p5465
S'-1.52%'
p5466
tp5467
a(S'229.35'
p5468
S'0.25%'
p5469
tp5470
a(S'228.78'
p5471
S'0.44%'
p5472
tp5473
a(S'227.78'
p5474
S'-0.58%'
p5475
tp5476
a(S'229.11'
p5477
S'0.73%'
p5478
tp5479
a(S'227.46'
p5480
S'0.50%'
p5481
tp5482
a(S'226.33'
p5483
S'0.83%'
p5484
tp5485
a(S'224.47'
p5486
S'1.00%'
p5487
tp5488
a(S'222.25'
p5489
S'0.42%'
p5490
tp5491
a(S'221.31'
p5492
S'1.21%'
p5493
tp5494
a(S'218.67'
p5495
S'0.95%'
p5496
tp5497
a(S'216.61'
p5498
S'1.16%'
p5499
tp5500
a(S'214.13'
p5501
S'0.48%'
p5502
tp5503
a(S'213.1'
p5504
S'0.75%'
p5505
tp5506
a(S'211.51'
p5507
S'2.56%'
p5508
tp5509
a(S'206.24'
p5510
S'1.52%'
p5511
tp5512
a(S'203.16'
p5513
S'-0.27%'
p5514
tp5515
a(S'203.71'
p5516
S'-0.71%'
p5517
tp5518
a(S'205.17'
p5519
S'-0.39%'
p5520
tp5521
a(S'205.98'
p5522
S'0.53%'
p5523
tp5524
a(S'204.9'
p5525
S'0.21%'
p5526
tp5527
a(S'204.47'
p5528
S'0.52%'
p5529
tp5530
a(S'203.41'
p5531
S'-0.56%'
p5532
tp5533
a(S'204.55'
p5534
S'-1.23%'
p5535
tp5536
a(S'207.09'
p5537
S'-2.73%'
p5538
tp5539
a(S'212.91'
p5540
S'-1.17%'
p5541
tp5542
a(S'215.42'
p5543
S'0.03%'
p5544
tp5545
a(S'215.35'
p5546
S'0.88%'
p5547
tp5548
a(S'213.47'
p5549
S'1.00%'
p5550
tp5551
a(S'211.35'
p5552
S'-1.22%'
p5553
tp5554
a(S'213.97'
p5555
S'0.29%'
p5556
tp5557
a(S'213.36'
p5558
S'0.67%'
p5559
tp5560
a(S'211.93'
p5561
S'0.81%'
p5562
tp5563
a(S'210.22'
p5564
S'-0.01%'
p5565
tp5566
a(S'210.24'
p5567
S'-2.65%'
p5568
tp5569
a(S'215.97'
p5570
S'1.01%'
p5571
tp5572
a(S'213.81'
p5573
S'0.68%'
p5574
tp5575
a(S'212.37'
p5576
S'-0.43%'
p5577
tp5578
a(S'213.28'
p5579
S'1.31%'
p5580
tp5581
a(S'210.53'
p5582
S'0.50%'
p5583
tp5584
a(S'209.49'
p5585
S'0.33%'
p5586
tp5587
a(S'208.8'
p5588
S'1.49%'
p5589
tp5590
a(S'205.74'
p5591
S'1.91%'
p5592
tp5593
a(S'201.89'
p5594
S'1.39%'
p5595
tp5596
a(S'199.12'
p5597
S'0.28%'
p5598
tp5599
a(S'198.56'
p5600
S'0.35%'
p5601
tp5602
a(S'197.86'
p5603
S'1.01%'
p5604
tp5605
a(S'195.89'
p5606
S'1.57%'
p5607
tp5608
a(S'192.86'
p5609
S'1.58%'
p5610
tp5611
a(S'189.86'
p5612
S'1.43%'
p5613
tp5614
a(S'187.18'
p5615
S'0.68%'
p5616
tp5617
a(S'185.91'
p5618
S'1.81%'
p5619
tp5620
a(S'182.6'
p5621
S'0.05%'
p5622
tp5623
a(S'182.51'
p5624
S'3.52%'
p5625
tp5626
a(S'176.3'
p5627
S'0.15%'
p5628
tp5629
a(S'176.03'
p5630
S'0.47%'
p5631
tp5632
a(S'175.21'
p5633
S'0.52%'
p5634
tp5635
a(S'174.3'
p5636
S'1.75%'
p5637
tp5638
a(S'171.31'
p5639
S'2.16%'
p5640
tp5641
a(S'167.69'
p5642
S'0.80%'
p5643
tp5644
a(S'166.36'
p5645
S'0.16%'
p5646
tp5647
a(S'166.1'
p5648
S'1.22%'
p5649
tp5650
a(S'164.09'
p5651
S'2.47%'
p5652
tp5653
a(S'160.14'
p5654
S'3.39%'
p5655
tp5656
a(S'154.89'
p5657
S'2.56%'
p5658
tp5659
a(S'151.02'
p5660
S'-1.37%'
p5661
tp5662
a(S'153.11'
p5663
S'-1.51%'
p5664
tp5665
a(S'155.46'
p5666
S'1.55%'
p5667
tp5668
a(S'153.08'
p5669
S'2.04%'
p5670
tp5671
a(S'150.02'
p5672
S'2.41%'
p5673
tp5674
a(S'146.49'
p5675
S'-0.65%'
p5676
tp5677
a(S'147.45'
p5678
S'-6.15%'
p5679
tp5680
a(S'157.12'
p5681
S'-0.37%'
p5682
tp5683
a(S'157.71'
p5684
S'-0.53%'
p5685
tp5686
a(S'158.55'
p5687
S'0.23%'
p5688
tp5689
a(S'158.19'
p5690
S'1.64%'
p5691
tp5692
a(S'155.64'
p5693
S'2.38%'
p5694
tp5695
a(S'152.02'
p5696
S'3.81%'
p5697
tp5698
a(S'146.44'
p5699
S'-0.54%'
p5700
tp5701
a(S'147.24'
p5702
S'2.01%'
p5703
tp5704
a(S'144.34'
p5705
S'1.09%'
p5706
tp5707
a(S'142.78'
p5708
S'0.02%'
p5709
tp5710
a(S'142.75'
p5711
S'1.48%'
p5712
tp5713
a(S'140.67'
p5714
S'0.57%'
p5715
tp5716
a(S'139.87'
p5717
S'1.21%'
p5718
tp5719
a(S'138.2'
p5720
S'2.39%'
p5721
tp5722
a(S'134.98'
p5723
S'1.31%'
p5724
tp5725
a(S'133.24'
p5726
S'-1.67%'
p5727
tp5728
a(S'135.5'
p5729
S'-0.42%'
p5730
tp5731
a(S'136.07'
p5732
S'0.22%'
p5733
tp5734
a(S'135.77'
p5735
S'1.28%'
p5736
tp5737
a(S'134.05'
p5738
S'1.12%'
p5739
tp5740
a(S'132.57'
p5741
S'0.45%'
p5742
tp5743
a(S'131.98'
p5744
S'0.45%'
p5745
tp5746
a(S'131.39'
p5747
S'2.15%'
p5748
tp5749
a(S'128.62'
p5750
S'1.23%'
p5751
tp5752
a(S'127.06'
p5753
S'1.05%'
p5754
tp5755
a(S'125.74'
p5756
S'0.28%'
p5757
tp5758
a(S'125.39'
p5759
S'1.09%'
p5760
tp5761
a(S'124.04'
p5762
S'2.00%'
p5763
tp5764
a(S'121.61'
p5765
S'0.63%'
p5766
tp5767
a(S'120.85'
p5768
S'1.57%'
p5769
tp5770
a(S'118.98'
p5771
S'1.02%'
p5772
tp5773
a(S'117.78'
p5774
S'-0.16%'
p5775
tp5776
a(S'117.97'
p5777
S'1.68%'
p5778
tp5779
a(S'116.02'
p5780
S'0.16%'
p5781
tp5782
a(S'115.83'
p5783
S'1.14%'
p5784
tp5785
a(S'114.52'
p5786
S'0.60%'
p5787
tp5788
a(S'113.84'
p5789
S'1.56%'
p5790
tp5791
a(S'112.09'
p5792
S'2.07%'
p5793
tp5794
a(S'109.82'
p5795
S'0.61%'
p5796
tp5797
a(S'109.15'
p5798
S'-0.45%'
p5799
tp5800
a(S'109.64'
p5801
S'0.63%'
p5802
tp5803
a(S'108.95'
p5804
S'1.88%'
p5805
tp5806
a(S'106.94'
p5807
S'1.61%'
p5808
tp5809
a(S'105.25'
p5810
S'0.26%'
p5811
tp5812
a(S'104.98'
p5813
S'0.61%'
p5814
tp5815
a(S'104.34'
p5816
S'0.20%'
p5817
tp5818
a(S'104.13'
p5819
S'0.38%'
p5820
tp5821
a(S'103.74'
p5822
S'1.69%'
p5823
tp5824
a(S'102.02'
p5825
S'0.57%'
p5826
tp5827
a(S'101.44'
p5828
S'0.18%'
p5829
tp5830
a(S'101.26'
p5831
S'0.25%'
p5832
tp5833
a(S'101.01'
p5834
S'-0.96%'
p5835
tp5836
a(S'101.99'
p5837
S'1.86%'
p5838
tp5839
a(S'100.13'
p5840
S'-0.44%'
p5841
tp5842
a(S'100.57'
p5843
S'0.57%'
p5844
tp5845
a(S'100'
p5846
S'0.00%'
p5847
tp5848
asS'Credit Suisse Equity Market Neutral Hedge Fund Index'
p5849
(lp5850
(S'268.76'
p5851
S'0.26%'
p5852
tp5853
a(S'268.07'
p5854
S'0.08%'
p5855
tp5856
a(S'267.85'
p5857
S'1.30%'
p5858
tp5859
a(S'264.42'
p5860
S'2.59%'
p5861
tp5862
a(S'257.75'
p5863
S'1.17%'
p5864
tp5865
a(S'254.77'
p5866
S'0.91%'
p5867
tp5868
a(S'252.48'
p5869
S'-1.72%'
p5870
tp5871
a(S'256.91'
p5872
S'2.02%'
p5873
tp5874
a(S'251.83'
p5875
S'0.57%'
p5876
tp5877
a(S'250.41'
p5878
S'0.40%'
p5879
tp5880
a(S'249.42'
p5881
S'1.01%'
p5882
tp5883
a(S'246.93'
p5884
S'0.05%'
p5885
tp5886
a(S'246.81'
p5887
S'-1.28%'
p5888
tp5889
a(S'250.02'
p5890
S'1.99%'
p5891
tp5892
a(S'245.13'
p5893
S'0.86%'
p5894
tp5895
a(S'243.04'
p5896
S'0.39%'
p5897
tp5898
a(S'242.09'
p5899
S'-0.42%'
p5900
tp5901
a(S'243.12'
p5902
S'0.56%'
p5903
tp5904
a(S'241.77'
p5905
S'1.25%'
p5906
tp5907
a(S'238.79'
p5908
S'-0.40%'
p5909
tp5910
a(S'239.74'
p5911
S'0.93%'
p5912
tp5913
a(S'237.54'
p5914
S'-3.18%'
p5915
tp5916
a(S'245.34'
p5917
S'-0.41%'
p5918
tp5919
a(S'246.35'
p5920
S'-0.15%'
p5921
tp5922
a(S'246.73'
p5923
S'1.33%'
p5924
tp5925
a(S'243.48'
p5926
S'0.17%'
p5927
tp5928
a(S'243.06'
p5929
S'-0.49%'
p5930
tp5931
a(S'244.26'
p5932
S'0.09%'
p5933
tp5934
a(S'244.03'
p5935
S'2.76%'
p5936
tp5937
a(S'237.48'
p5938
S'-2.22%'
p5939
tp5940
a(S'242.86'
p5941
S'-0.89%'
p5942
tp5943
a(S'245.05'
p5944
S'-0.18%'
p5945
tp5946
a(S'245.5'
p5947
S'-0.29%'
p5948
tp5949
a(S'246.21'
p5950
S'-1.03%'
p5951
tp5952
a(S'248.77'
p5953
S'3.37%'
p5954
tp5955
a(S'240.66'
p5956
S'1.11%'
p5957
tp5958
a(S'238.02'
p5959
S'0.52%'
p5960
tp5961
a(S'236.79'
p5962
S'1.79%'
p5963
tp5964
a(S'232.62'
p5965
S'1.74%'
p5966
tp5967
a(S'228.64'
p5968
S'-2.51%'
p5969
tp5970
a(S'234.53'
p5971
S'0.93%'
p5972
tp5973
a(S'232.36'
p5974
S'3.66%'
p5975
tp5976
a(S'224.16'
p5977
S'-1.55%'
p5978
tp5979
a(S'227.68'
p5980
S'1.67%'
p5981
tp5982
a(S'223.93'
p5983
S'-0.99%'
p5984
tp5985
a(S'226.18'
p5986
S'-3.30%'
p5987
tp5988
a(S'233.91'
p5989
S'0.43%'
p5990
tp5991
a(S'232.91'
p5992
S'0.54%'
p5993
tp5994
a(S'231.66'
p5995
S'-1.35%'
p5996
tp5997
a(S'234.84'
p5998
S'0.10%'
p5999
tp6000
a(S'234.61'
p6001
S'-0.87%'
p6002
tp6003
a(S'236.68'
p6004
S'0.08%'
p6005
tp6006
a(S'236.5'
p6007
S'-0.35%'
p6008
tp6009
a(S'237.33'
p6010
S'0.96%'
p6011
tp6012
a(S'235.07'
p6013
S'1.31%'
p6014
tp6015
a(S'232.02'
p6016
S'1.79%'
p6017
tp6018
a(S'227.95'
p6019
S'-0.21%'
p6020
tp6021
a(S'228.42'
p6022
S'3.63%'
p6023
tp6024
a(S'220.42'
p6025
S'1.29%'
p6026
tp6027
a(S'217.61'
p6028
S'1.10%'
p6029
tp6030
a(S'215.25'
p6031
S'-5.61%'
p6032
tp6033
a(S'228.05'
p6034
S'1.14%'
p6035
tp6036
a(S'225.47'
p6037
S'0.41%'
p6038
tp6039
a(S'224.54'
p6040
S'-40.45%'
p6041
tp6042
a(S'377.08'
p6043
S'-1.83%'
p6044
tp6045
a(S'384.09'
p6046
S'-1.41%'
p6047
tp6048
a(S'389.57'
p6049
S'-0.59%'
p6050
tp6051
a(S'391.87'
p6052
S'-0.06%'
p6053
tp6054
a(S'392.1'
p6055
S'0.55%'
p6056
tp6057
a(S'389.96'
p6058
S'1.10%'
p6059
tp6060
a(S'385.71'
p6061
S'0.31%'
p6062
tp6063
a(S'384.5'
p6064
S'0.01%'
p6065
tp6066
a(S'384.46'
p6067
S'1.07%'
p6068
tp6069
a(S'380.4'
p6070
S'0.69%'
p6071
tp6072
a(S'377.78'
p6073
S'0.48%'
p6074
tp6075
a(S'375.97'
p6076
S'0.56%'
p6077
tp6078
a(S'373.87'
p6079
S'1.50%'
p6080
tp6081
a(S'368.34'
p6082
S'1.30%'
p6083
tp6084
a(S'363.6'
p6085
S'-0.39%'
p6086
tp6087
a(S'365.03'
p6088
S'0.40%'
p6089
tp6090
a(S'363.56'
p6091
S'0.56%'
p6092
tp6093
a(S'361.53'
p6094
S'0.75%'
p6095
tp6096
a(S'358.84'
p6097
S'1.01%'
p6098
tp6099
a(S'355.24'
p6100
S'1.65%'
p6101
tp6102
a(S'349.47'
p6103
S'0.47%'
p6104
tp6105
a(S'347.85'
p6106
S'0.61%'
p6107
tp6108
a(S'345.74'
p6109
S'0.88%'
p6110
tp6111
a(S'342.72'
p6112
S'0.97%'
p6113
tp6114
a(S'339.42'
p6115
S'0.39%'
p6116
tp6117
a(S'338.11'
p6118
S'0.20%'
p6119
tp6120
a(S'337.42'
p6121
S'0.31%'
p6122
tp6123
a(S'336.39'
p6124
S'1.26%'
p6125
tp6126
a(S'332.21'
p6127
S'0.27%'
p6128
tp6129
a(S'331.3'
p6130
S'0.82%'
p6131
tp6132
a(S'328.61'
p6133
S'2.02%'
p6134
tp6135
a(S'322.11'
p6136
S'1.62%'
p6137
tp6138
a(S'316.99'
p6139
S'0.50%'
p6140
tp6141
a(S'315.41'
p6142
S'1.40%'
p6143
tp6144
a(S'311.05'
p6145
S'1.44%'
p6146
tp6147
a(S'306.64'
p6148
S'0.18%'
p6149
tp6150
a(S'306.1'
p6151
S'0.83%'
p6152
tp6153
a(S'303.57'
p6154
S'0.90%'
p6155
tp6156
a(S'300.87'
p6157
S'0.86%'
p6158
tp6159
a(S'298.3'
p6160
S'0.33%'
p6161
tp6162
a(S'297.33'
p6163
S'0.21%'
p6164
tp6165
a(S'296.7'
p6166
S'-0.34%'
p6167
tp6168
a(S'297.72'
p6169
S'-0.22%'
p6170
tp6171
a(S'298.37'
p6172
S'0.43%'
p6173
tp6174
a(S'297.1'
p6175
S'1.02%'
p6176
tp6177
a(S'294.11'
p6178
S'0.35%'
p6179
tp6180
a(S'293.07'
p6181
S'0.86%'
p6182
tp6183
a(S'290.58'
p6184
S'0.26%'
p6185
tp6186
a(S'289.83'
p6187
S'0.03%'
p6188
tp6189
a(S'289.75'
p6190
S'0.54%'
p6191
tp6192
a(S'288.2'
p6193
S'2.13%'
p6194
tp6195
a(S'282.18'
p6196
S'0.31%'
p6197
tp6198
a(S'281.3'
p6199
S'0.84%'
p6200
tp6201
a(S'278.96'
p6202
S'0.21%'
p6203
tp6204
a(S'278.38'
p6205
S'-0.34%'
p6206
tp6207
a(S'279.34'
p6208
S'-0.11%'
p6209
tp6210
a(S'279.66'
p6211
S'0.79%'
p6212
tp6213
a(S'277.48'
p6214
S'0.82%'
p6215
tp6216
a(S'275.23'
p6217
S'0.93%'
p6218
tp6219
a(S'272.69'
p6220
S'0.33%'
p6221
tp6222
a(S'271.78'
p6223
S'0.67%'
p6224
tp6225
a(S'269.97'
p6226
S'1.06%'
p6227
tp6228
a(S'267.15'
p6229
S'0.06%'
p6230
tp6231
a(S'266.99'
p6232
S'0.68%'
p6233
tp6234
a(S'265.19'
p6235
S'0.46%'
p6236
tp6237
a(S'263.97'
p6238
S'1.22%'
p6239
tp6240
a(S'260.78'
p6241
S'0.40%'
p6242
tp6243
a(S'259.73'
p6244
S'0.79%'
p6245
tp6246
a(S'257.69'
p6247
S'-0.06%'
p6248
tp6249
a(S'257.84'
p6250
S'0.31%'
p6251
tp6252
a(S'257.05'
p6253
S'0.82%'
p6254
tp6255
a(S'254.95'
p6256
S'0.31%'
p6257
tp6258
a(S'254.17'
p6259
S'0.41%'
p6260
tp6261
a(S'253.14'
p6262
S'-0.03%'
p6263
tp6264
a(S'253.22'
p6265
S'0.57%'
p6266
tp6267
a(S'251.79'
p6268
S'1.84%'
p6269
tp6270
a(S'247.25'
p6271
S'0.52%'
p6272
tp6273
a(S'245.97'
p6274
S'1.29%'
p6275
tp6276
a(S'242.84'
p6277
S'0.53%'
p6278
tp6279
a(S'241.57'
p6280
S'0.80%'
p6281
tp6282
a(S'239.65'
p6283
S'0.03%'
p6284
tp6285
a(S'239.58'
p6286
S'0.12%'
p6287
tp6288
a(S'239.3'
p6289
S'-0.08%'
p6290
tp6291
a(S'239.49'
p6292
S'0.82%'
p6293
tp6294
a(S'237.54'
p6295
S'0.72%'
p6296
tp6297
a(S'235.84'
p6298
S'-0.05%'
p6299
tp6300
a(S'235.95'
p6301
S'1.01%'
p6302
tp6303
a(S'233.6'
p6304
S'0.22%'
p6305
tp6306
a(S'233.09'
p6307
S'0.29%'
p6308
tp6309
a(S'232.41'
p6310
S'0.64%'
p6311
tp6312
a(S'230.93'
p6313
S'1.44%'
p6314
tp6315
a(S'227.66'
p6316
S'0.92%'
p6317
tp6318
a(S'225.58'
p6319
S'0.89%'
p6320
tp6321
a(S'223.58'
p6322
S'2.13%'
p6323
tp6324
a(S'218.92'
p6325
S'1.28%'
p6326
tp6327
a(S'216.16'
p6328
S'0.28%'
p6329
tp6330
a(S'215.55'
p6331
S'0.81%'
p6332
tp6333
a(S'213.81'
p6334
S'-0.14%'
p6335
tp6336
a(S'214.1'
p6337
S'1.43%'
p6338
tp6339
a(S'211.08'
p6340
S'1.23%'
p6341
tp6342
a(S'208.52'
p6343
S'1.82%'
p6344
tp6345
a(S'204.8'
p6346
S'1.46%'
p6347
tp6348
a(S'201.85'
p6349
S'1.44%'
p6350
tp6351
a(S'198.99'
p6352
S'2.24%'
p6353
tp6354
a(S'194.63'
p6355
S'0.79%'
p6356
tp6357
a(S'193.1'
p6358
S'1.42%'
p6359
tp6360
a(S'190.39'
p6361
S'0.96%'
p6362
tp6363
a(S'188.58'
p6364
S'1.56%'
p6365
tp6366
a(S'185.68'
p6367
S'0.82%'
p6368
tp6369
a(S'184.17'
p6370
S'0.22%'
p6371
tp6372
a(S'183.77'
p6373
S'1.11%'
p6374
tp6375
a(S'181.75'
p6376
S'1.66%'
p6377
tp6378
a(S'178.78'
p6379
S'1.92%'
p6380
tp6381
a(S'175.41'
p6382
S'1.44%'
p6383
tp6384
a(S'172.92'
p6385
S'2.02%'
p6386
tp6387
a(S'169.49'
p6388
S'1.35%'
p6389
tp6390
a(S'167.24'
p6391
S'0.61%'
p6392
tp6393
a(S'166.22'
p6394
S'0.69%'
p6395
tp6396
a(S'165.08'
p6397
S'1.24%'
p6398
tp6399
a(S'163.06'
p6400
S'2.10%'
p6401
tp6402
a(S'159.7'
p6403
S'2.48%'
p6404
tp6405
a(S'155.84'
p6406
S'0.95%'
p6407
tp6408
a(S'154.38'
p6409
S'-0.85%'
p6410
tp6411
a(S'155.71'
p6412
S'-0.10%'
p6413
tp6414
a(S'155.87'
p6415
S'0.47%'
p6416
tp6417
a(S'155.14'
p6418
S'1.31%'
p6419
tp6420
a(S'153.13'
p6421
S'0.29%'
p6422
tp6423
a(S'152.68'
p6424
S'1.97%'
p6425
tp6426
a(S'149.73'
p6427
S'1.85%'
p6428
tp6429
a(S'147.01'
p6430
S'0.91%'
p6431
tp6432
a(S'145.69'
p6433
S'0.04%'
p6434
tp6435
a(S'145.63'
p6436
S'-0.38%'
p6437
tp6438
a(S'146.19'
p6439
S'0.81%'
p6440
tp6441
a(S'145.01'
p6442
S'1.81%'
p6443
tp6444
a(S'142.43'
p6445
S'-0.92%'
p6446
tp6447
a(S'143.75'
p6448
S'3.26%'
p6449
tp6450
a(S'139.21'
p6451
S'1.18%'
p6452
tp6453
a(S'137.58'
p6454
S'3.03%'
p6455
tp6456
a(S'133.54'
p6457
S'1.21%'
p6458
tp6459
a(S'131.95'
p6460
S'-1.15%'
p6461
tp6462
a(S'133.48'
p6463
S'1.97%'
p6464
tp6465
a(S'130.9'
p6466
S'3.17%'
p6467
tp6468
a(S'126.88'
p6469
S'0.95%'
p6470
tp6471
a(S'125.68'
p6472
S'2.00%'
p6473
tp6474
a(S'123.22'
p6475
S'1.11%'
p6476
tp6477
a(S'121.87'
p6478
S'1.32%'
p6479
tp6480
a(S'120.28'
p6481
S'1.48%'
p6482
tp6483
a(S'118.53'
p6484
S'0.60%'
p6485
tp6486
a(S'117.82'
p6487
S'0.24%'
p6488
tp6489
a(S'117.54'
p6490
S'1.14%'
p6491
tp6492
a(S'116.21'
p6493
S'1.29%'
p6494
tp6495
a(S'114.73'
p6496
S'1.65%'
p6497
tp6498
a(S'112.87'
p6499
S'1.59%'
p6500
tp6501
a(S'111.1'
p6502
S'2.10%'
p6503
tp6504
a(S'108.82'
p6505
S'0.81%'
p6506
tp6507
a(S'107.95'
p6508
S'0.29%'
p6509
tp6510
a(S'107.64'
p6511
S'0.28%'
p6512
tp6513
a(S'107.34'
p6514
S'-0.57%'
p6515
tp6516
a(S'107.96'
p6517
S'0.68%'
p6518
tp6519
a(S'107.23'
p6520
S'0.55%'
p6521
tp6522
a(S'106.64'
p6523
S'1.52%'
p6524
tp6525
a(S'105.04'
p6526
S'0.41%'
p6527
tp6528
a(S'104.61'
p6529
S'2.27%'
p6530
tp6531
a(S'102.29'
p6532
S'2.92%'
p6533
tp6534
a(S'99.39'
p6535
S'0.94%'
p6536
tp6537
a(S'98.46'
p6538
S'0.47%'
p6539
tp6540
a(S'98'
p6541
S'1.27%'
p6542
tp6543
a(S'96.77'
p6544
S'-0.30%'
p6545
tp6546
a(S'97.06'
p6547
S'-0.37%'
p6548
tp6549
a(S'97.42'
p6550
S'-0.94%'
p6551
tp6552
a(S'98.34'
p6553
S'-0.99%'
p6554
tp6555
a(S'99.32'
p6556
S'-1.00%'
p6557
tp6558
a(S'100.32'
p6559
S'0.70%'
p6560
tp6561
a(S'99.62'
p6562
S'-0.11%'
p6563
tp6564
a(S'99.73'
p6565
S'0.25%'
p6566
tp6567
a(S'99.48'
p6568
S'-0.24%'
p6569
tp6570
a(S'99.72'
p6571
S'0.24%'
p6572
tp6573
a(S'99.48'
p6574
S'-0.52%'
p6575
tp6576
a(S'100'
p6577
S'0.00%'
p6578
tp6579
asS'Credit Suisse Managed Futures Hedge Fund Index'
p6580
(lp6581
(S'263.22'
p6582
S'0.94%'
p6583
tp6584
a(S'260.78'
p6585
S'-3.42%'
p6586
tp6587
a(S'270.02'
p6588
S'0.10%'
p6589
tp6590
a(S'269.74'
p6591
S'2.09%'
p6592
tp6593
a(S'264.21'
p6594
S'2.96%'
p6595
tp6596
a(S'256.62'
p6597
S'-0.15%'
p6598
tp6599
a(S'257'
p6600
S'-2.77%'
p6601
tp6602
a(S'264.33'
p6603
S'-1.06%'
p6604
tp6605
a(S'267.17'
p6606
S'-5.42%'
p6607
tp6608
a(S'282.49'
p6609
S'-4.98%'
p6610
tp6611
a(S'297.3'
p6612
S'3.50%'
p6613
tp6614
a(S'287.24'
p6615
S'1.74%'
p6616
tp6617
a(S'282.33'
p6618
S'-0.77%'
p6619
tp6620
a(S'284.52'
p6621
S'2.67%'
p6622
tp6623
a(S'277.11'
p6624
S'1.08%'
p6625
tp6626
a(S'274.15'
p6627
S'0.58%'
p6628
tp6629
a(S'272.56'
p6630
S'-4.64%'
p6631
tp6632
a(S'285.82'
p6633
S'-1.37%'
p6634
tp6635
a(S'289.8'
p6636
S'-1.55%'
p6637
tp6638
a(S'294.37'
p6639
S'4.68%'
p6640
tp6641
a(S'281.2'
p6642
S'-3.56%'
p6643
tp6644
a(S'291.58'
p6645
S'2.38%'
p6646
tp6647
a(S'284.79'
p6648
S'0.43%'
p6649
tp6650
a(S'283.56'
p6651
S'-2.96%'
p6652
tp6653
a(S'292.22'
p6654
S'1.21%'
p6655
tp6656
a(S'288.74'
p6657
S'1.15%'
p6658
tp6659
a(S'285.47'
p6660
S'0.79%'
p6661
tp6662
a(S'283.23'
p6663
S'0.18%'
p6664
tp6665
a(S'282.73'
p6666
S'-5.06%'
p6667
tp6668
a(S'297.81'
p6669
S'-0.78%'
p6670
tp6671
a(S'300.16'
p6672
S'0.25%'
p6673
tp6674
a(S'299.42'
p6675
S'4.03%'
p6676
tp6677
a(S'287.82'
p6678
S'-3.07%'
p6679
tp6680
a(S'296.95'
p6681
S'-4.44%'
p6682
tp6683
a(S'310.75'
p6684
S'5.40%'
p6685
tp6686
a(S'294.82'
p6687
S'-2.76%'
p6688
tp6689
a(S'303.2'
p6690
S'2.60%'
p6691
tp6692
a(S'295.53'
p6693
S'-0.82%'
p6694
tp6695
a(S'297.96'
p6696
S'5.42%'
p6697
tp6698
a(S'282.63'
p6699
S'-4.11%'
p6700
tp6701
a(S'294.74'
p6702
S'4.29%'
p6703
tp6704
a(S'282.62'
p6705
S'2.77%'
p6706
tp6707
a(S'275'
p6708
S'4.87%'
p6709
tp6710
a(S'262.23'
p6711
S'-1.50%'
p6712
tp6713
a(S'266.21'
p6714
S'0.42%'
p6715
tp6716
a(S'265.09'
p6717
S'-4.03%'
p6718
tp6719
a(S'276.21'
p6720
S'1.89%'
p6721
tp6722
a(S'271.08'
p6723
S'4.25%'
p6724
tp6725
a(S'260.03'
p6726
S'1.81%'
p6727
tp6728
a(S'255.41'
p6729
S'-3.81%'
p6730
tp6731
a(S'265.52'
p6732
S'-5.00%'
p6733
tp6734
a(S'279.5'
p6735
S'4.94%'
p6736
tp6737
a(S'266.33'
p6738
S'-2.17%'
p6739
tp6740
a(S'272.24'
p6741
S'2.97%'
p6742
tp6743
a(S'264.38'
p6744
S'0.92%'
p6745
tp6746
a(S'261.96'
p6747
S'-0.43%'
p6748
tp6749
a(S'263.08'
p6750
S'-2.32%'
p6751
tp6752
a(S'269.33'
p6753
S'0.85%'
p6754
tp6755
a(S'267.05'
p6756
S'-3.24%'
p6757
tp6758
a(S'276'
p6759
S'-2.18%'
p6760
tp6761
a(S'282.15'
p6762
S'-0.16%'
p6763
tp6764
a(S'282.61'
p6765
S'-0.56%'
p6766
tp6767
a(S'284.19'
p6768
S'2.37%'
p6769
tp6770
a(S'277.61'
p6771
S'3.22%'
p6772
tp6773
a(S'268.96'
p6774
S'4.96%'
p6775
tp6776
a(S'256.24'
p6777
S'-0.57%'
p6778
tp6779
a(S'257.7'
p6780
S'-2.48%'
p6781
tp6782
a(S'264.25'
p6783
S'-4.20%'
p6784
tp6785
a(S'275.84'
p6786
S'4.79%'
p6787
tp6788
a(S'263.22'
p6789
S'1.44%'
p6790
tp6791
a(S'259.49'
p6792
S'-2.15%'
p6793
tp6794
a(S'265.19'
p6795
S'-0.53%'
p6796
tp6797
a(S'266.61'
p6798
S'6.61%'
p6799
tp6800
a(S'250.08'
p6801
S'4.13%'
p6802
tp6803
a(S'240.16'
p6804
S'0.32%'
p6805
tp6806
a(S'239.39'
p6807
S'-0.95%'
p6808
tp6809
a(S'241.69'
p6810
S'4.06%'
p6811
tp6812
a(S'232.27'
p6813
S'5.13%'
p6814
tp6815
a(S'220.93'
p6816
S'-4.61%'
p6817
tp6818
a(S'231.6'
p6819
S'-4.79%'
p6820
tp6821
a(S'243.25'
p6822
S'3.03%'
p6823
tp6824
a(S'236.1'
p6825
S'5.13%'
p6826
tp6827
a(S'224.57'
p6828
S'4.02%'
p6829
tp6830
a(S'215.9'
p6831
S'-2.54%'
p6832
tp6833
a(S'221.53'
p6834
S'-4.38%'
p6835
tp6836
a(S'231.67'
p6837
S'2.26%'
p6838
tp6839
a(S'226.54'
p6840
S'4.05%'
p6841
tp6842
a(S'217.73'
p6843
S'2.22%'
p6844
tp6845
a(S'213'
p6846
S'1.73%'
p6847
tp6848
a(S'209.38'
p6849
S'-1.15%'
p6850
tp6851
a(S'211.82'
p6852
S'1.39%'
p6853
tp6854
a(S'208.92'
p6855
S'-2.43%'
p6856
tp6857
a(S'214.12'
p6858
S'-2.04%'
p6859
tp6860
a(S'218.57'
p6861
S'-2.70%'
p6862
tp6863
a(S'224.64'
p6864
S'2.92%'
p6865
tp6866
a(S'218.27'
p6867
S'4.08%'
p6868
tp6869
a(S'209.71'
p6870
S'-2.62%'
p6871
tp6872
a(S'215.35'
p6873
S'2.71%'
p6874
tp6875
a(S'209.66'
p6876
S'-2.53%'
p6877
tp6878
a(S'215.11'
p6879
S'4.17%'
p6880
tp6881
a(S'206.5'
p6882
S'-1.97%'
p6883
tp6884
a(S'210.64'
p6885
S'1.38%'
p6886
tp6887
a(S'207.78'
p6888
S'-0.87%'
p6889
tp6890
a(S'209.61'
p6891
S'0.78%'
p6892
tp6893
a(S'207.99'
p6894
S'4.22%'
p6895
tp6896
a(S'199.57'
p6897
S'3.62%'
p6898
tp6899
a(S'192.59'
p6900
S'-3.45%'
p6901
tp6902
a(S'199.47'
p6903
S'0.37%'
p6904
tp6905
a(S'198.73'
p6906
S'0.08%'
p6907
tp6908
a(S'198.58'
p6909
S'-5.39%'
p6910
tp6911
a(S'209.9'
p6912
S'0.72%'
p6913
tp6914
a(S'208.39'
p6915
S'5.83%'
p6916
tp6917
a(S'196.91'
p6918
S'4.82%'
p6919
tp6920
a(S'187.85'
p6921
S'1.96%'
p6922
tp6923
a(S'184.23'
p6924
S'-1.53%'
p6925
tp6926
a(S'187.1'
p6927
S'-1.95%'
p6928
tp6929
a(S'190.82'
p6930
S'-2.84%'
p6931
tp6932
a(S'196.39'
p6933
S'-1.05%'
p6934
tp6935
a(S'198.47'
p6936
S'-6.46%'
p6937
tp6938
a(S'212.17'
p6939
S'-0.86%'
p6940
tp6941
a(S'214.02'
p6942
S'6.89%'
p6943
tp6944
a(S'200.23'
p6945
S'1.09%'
p6946
tp6947
a(S'198.08'
p6948
S'5.42%'
p6949
tp6950
a(S'187.9'
p6951
S'0.54%'
p6952
tp6953
a(S'186.9'
p6954
S'0.78%'
p6955
tp6956
a(S'185.46'
p6957
S'-1.60%'
p6958
tp6959
a(S'188.48'
p6960
S'1.06%'
p6961
tp6962
a(S'186.51'
p6963
S'-2.75%'
p6964
tp6965
a(S'191.78'
p6966
S'-2.21%'
p6967
tp6968
a(S'196.11'
p6969
S'5.14%'
p6970
tp6971
a(S'186.52'
p6972
S'1.39%'
p6973
tp6974
a(S'183.97'
p6975
S'-6.10%'
p6976
tp6977
a(S'195.92'
p6978
S'6.43%'
p6979
tp6980
a(S'184.08'
p6981
S'6.07%'
p6982
tp6983
a(S'173.55'
p6984
S'5.50%'
p6985
tp6986
a(S'164.51'
p6987
S'-2.09%'
p6988
tp6989
a(S'168.02'
p6990
S'-5.03%'
p6991
tp6992
a(S'176.92'
p6993
S'4.11%'
p6994
tp6995
a(S'169.94'
p6996
S'3.36%'
p6997
tp6998
a(S'164.42'
p6999
S'6.12%'
p7000
tp7001
a(S'154.94'
p7002
S'8.63%'
p7003
tp7004
a(S'142.63'
p7005
S'3.51%'
p7006
tp7007
a(S'137.79'
p7008
S'-1.61%'
p7009
tp7010
a(S'140.05'
p7011
S'-0.91%'
p7012
tp7013
a(S'141.33'
p7014
S'-2.40%'
p7015
tp7016
a(S'144.8'
p7017
S'-1.27%'
p7018
tp7019
a(S'146.66'
p7020
S'2.15%'
p7021
tp7022
a(S'143.58'
p7023
S'-8.62%'
p7024
tp7025
a(S'157.13'
p7026
S'3.40%'
p7027
tp7028
a(S'151.97'
p7029
S'3.65%'
p7030
tp7031
a(S'146.62'
p7032
S'2.52%'
p7033
tp7034
a(S'143.02'
p7035
S'0.15%'
p7036
tp7037
a(S'142.8'
p7038
S'-0.84%'
p7039
tp7040
a(S'144.01'
p7041
S'0.83%'
p7042
tp7043
a(S'142.82'
p7044
S'-5.49%'
p7045
tp7046
a(S'151.12'
p7047
S'4.88%'
p7048
tp7049
a(S'144.09'
p7050
S'0.15%'
p7051
tp7052
a(S'143.88'
p7053
S'-0.03%'
p7054
tp7055
a(S'143.93'
p7056
S'7.76%'
p7057
tp7058
a(S'133.57'
p7059
S'6.68%'
p7060
tp7061
a(S'125.21'
p7062
S'0.76%'
p7063
tp7064
a(S'124.26'
p7065
S'-3.34%'
p7066
tp7067
a(S'128.56'
p7068
S'1.23%'
p7069
tp7070
a(S'127'
p7071
S'-2.05%'
p7072
tp7073
a(S'129.66'
p7074
S'-1.12%'
p7075
tp7076
a(S'131.13'
p7077
S'0.58%'
p7078
tp7079
a(S'130.37'
p7080
S'-2.28%'
p7081
tp7082
a(S'133.41'
p7083
S'-1.31%'
p7084
tp7085
a(S'135.18'
p7086
S'-2.10%'
p7087
tp7088
a(S'138.08'
p7089
S'0.01%'
p7090
tp7091
a(S'138.07'
p7092
S'2.35%'
p7093
tp7094
a(S'134.9'
p7095
S'-0.52%'
p7096
tp7097
a(S'135.6'
p7098
S'-4.82%'
p7099
tp7100
a(S'142.46'
p7101
S'1.81%'
p7102
tp7103
a(S'139.93'
p7104
S'-0.32%'
p7105
tp7106
a(S'140.38'
p7107
S'-0.72%'
p7108
tp7109
a(S'141.4'
p7110
S'2.76%'
p7111
tp7112
a(S'137.6'
p7113
S'-2.93%'
p7114
tp7115
a(S'141.75'
p7116
S'2.67%'
p7117
tp7118
a(S'138.07'
p7119
S'-1.07%'
p7120
tp7121
a(S'139.56'
p7122
S'-0.54%'
p7123
tp7124
a(S'140.32'
p7125
S'-3.14%'
p7126
tp7127
a(S'144.87'
p7128
S'2.80%'
p7129
tp7130
a(S'140.92'
p7131
S'-1.80%'
p7132
tp7133
a(S'143.51'
p7134
S'1.21%'
p7135
tp7136
a(S'141.8'
p7137
S'6.87%'
p7138
tp7139
a(S'132.69'
p7140
S'9.95%'
p7141
tp7142
a(S'120.68'
p7143
S'-1.12%'
p7144
tp7145
a(S'122.05'
p7146
S'0.91%'
p7147
tp7148
a(S'120.95'
p7149
S'3.25%'
p7150
tp7151
a(S'117.14'
p7152
S'-4.03%'
p7153
tp7154
a(S'122.06'
p7155
S'1.06%'
p7156
tp7157
a(S'120.78'
p7158
S'-0.28%'
p7159
tp7160
a(S'121.12'
p7161
S'0.87%'
p7162
tp7163
a(S'120.08'
p7164
S'2.82%'
p7165
tp7166
a(S'116.79'
p7167
S'-0.68%'
p7168
tp7169
a(S'117.59'
p7170
S'-0.73%'
p7171
tp7172
a(S'118.45'
p7173
S'3.63%'
p7174
tp7175
a(S'114.3'
p7176
S'-7.27%'
p7177
tp7178
a(S'123.26'
p7179
S'5.69%'
p7180
tp7181
a(S'116.62'
p7182
S'0.21%'
p7183
tp7184
a(S'116.37'
p7185
S'-0.76%'
p7186
tp7187
a(S'117.26'
p7188
S'-2.69%'
p7189
tp7190
a(S'120.5'
p7191
S'-0.95%'
p7192
tp7193
a(S'121.66'
p7194
S'1.43%'
p7195
tp7196
a(S'119.94'
p7197
S'3.00%'
p7198
tp7199
a(S'116.45'
p7200
S'-1.83%'
p7201
tp7202
a(S'118.62'
p7203
S'4.21%'
p7204
tp7205
a(S'113.83'
p7206
S'5.59%'
p7207
tp7208
a(S'107.8'
p7209
S'3.22%'
p7210
tp7211
a(S'104.44'
p7212
S'0.78%'
p7213
tp7214
a(S'103.63'
p7215
S'0.10%'
p7216
tp7217
a(S'103.53'
p7218
S'0.20%'
p7219
tp7220
a(S'103.32'
p7221
S'-1.99%'
p7222
tp7223
a(S'105.42'
p7224
S'3.12%'
p7225
tp7226
a(S'102.23'
p7227
S'0.11%'
p7228
tp7229
a(S'102.12'
p7230
S'-4.50%'
p7231
tp7232
a(S'106.93'
p7233
S'2.82%'
p7234
tp7235
a(S'104'
p7236
S'4.59%'
p7237
tp7238
a(S'99.44'
p7239
S'-0.27%'
p7240
tp7241
a(S'99.71'
p7242
S'-1.06%'
p7243
tp7244
a(S'100.78'
p7245
S'-9.35%'
p7246
tp7247
a(S'111.18'
p7248
S'-0.32%'
p7249
tp7250
a(S'111.54'
p7251
S'3.05%'
p7252
tp7253
a(S'108.24'
p7254
S'-5.74%'
p7255
tp7256
a(S'114.83'
p7257
S'-4.70%'
p7258
tp7259
a(S'120.49'
p7260
S'-0.33%'
p7261
tp7262
a(S'120.89'
p7263
S'9.46%'
p7264
tp7265
a(S'110.44'
p7266
S'-1.27%'
p7267
tp7268
a(S'111.86'
p7269
S'-0.08%'
p7270
tp7271
a(S'111.95'
p7272
S'-1.89%'
p7273
tp7274
a(S'114.11'
p7275
S'1.65%'
p7276
tp7277
a(S'112.26'
p7278
S'1.18%'
p7279
tp7280
a(S'110.95'
p7281
S'2.03%'
p7282
tp7283
a(S'108.74'
p7284
S'-0.27%'
p7285
tp7286
a(S'109.03'
p7287
S'-1.01%'
p7288
tp7289
a(S'110.14'
p7290
S'4.15%'
p7291
tp7292
a(S'105.75'
p7293
S'0.76%'
p7294
tp7295
a(S'104.95'
p7296
S'0.86%'
p7297
tp7298
a(S'104.06'
p7299
S'2.60%'
p7300
tp7301
a(S'101.42'
p7302
S'1.20%'
p7303
tp7304
a(S'100.22'
p7305
S'0.22%'
p7306
tp7307
a(S'100'
p7308
S'0.00%'
p7309
tp7310
asS'Credit Suisse Multi-Strategy Hedge Fund Index'
p7311
(lp7312
(S'483.61'
p7313
S'1.41%'
p7314
tp7315
a(S'476.9'
p7316
S'0.81%'
p7317
tp7318
a(S'473.09'
p7319
S'1.63%'
p7320
tp7321
a(S'465.48'
p7322
S'0.86%'
p7323
tp7324
a(S'461.5'
p7325
S'1.77%'
p7326
tp7327
a(S'453.46'
p7328
S'1.42%'
p7329
tp7330
a(S'447.1'
p7331
S'0.08%'
p7332
tp7333
a(S'446.74'
p7334
S'1.16%'
p7335
tp7336
a(S'441.61'
p7337
S'-0.74%'
p7338
tp7339
a(S'444.9'
p7340
S'0.37%'
p7341
tp7342
a(S'443.26'
p7343
S'1.09%'
p7344
tp7345
a(S'438.49'
p7346
S'0.62%'
p7347
tp7348
a(S'435.78'
p7349
S'0.38%'
p7350
tp7351
a(S'434.11'
p7352
S'2.07%'
p7353
tp7354
a(S'425.31'
p7355
S'1.37%'
p7356
tp7357
a(S'419.56'
p7358
S'1.00%'
p7359
tp7360
a(S'415.4'
p7361
S'0.34%'
p7362
tp7363
a(S'413.98'
p7364
S'0.80%'
p7365
tp7366
a(S'410.69'
p7367
S'1.36%'
p7368
tp7369
a(S'405.18'
p7370
S'1.28%'
p7371
tp7372
a(S'400.05'
p7373
S'0.48%'
p7374
tp7375
a(S'398.13'
p7376
S'-1.17%'
p7377
tp7378
a(S'402.84'
p7379
S'0.58%'
p7380
tp7381
a(S'400.51'
p7382
S'0.45%'
p7383
tp7384
a(S'398.73'
p7385
S'1.72%'
p7386
tp7387
a(S'391.97'
p7388
S'2.47%'
p7389
tp7390
a(S'382.51'
p7391
S'0.14%'
p7392
tp7393
a(S'381.98'
p7394
S'-0.89%'
p7395
tp7396
a(S'385.41'
p7397
S'2.05%'
p7398
tp7399
a(S'377.67'
p7400
S'-2.37%'
p7401
tp7402
a(S'386.84'
p7403
S'-1.93%'
p7404
tp7405
a(S'394.47'
p7406
S'0.61%'
p7407
tp7408
a(S'392.08'
p7409
S'-0.64%'
p7410
tp7411
a(S'394.62'
p7412
S'-0.05%'
p7413
tp7414
a(S'394.8'
p7415
S'0.85%'
p7416
tp7417
a(S'391.46'
p7418
S'0.79%'
p7419
tp7420
a(S'388.38'
p7421
S'1.39%'
p7422
tp7423
a(S'383.06'
p7424
S'1.98%'
p7425
tp7426
a(S'375.62'
p7427
S'1.70%'
p7428
tp7429
a(S'369.35'
p7430
S'0.30%'
p7431
tp7432
a(S'368.24'
p7433
S'2.03%'
p7434
tp7435
a(S'360.93'
p7436
S'2.79%'
p7437
tp7438
a(S'351.14'
p7439
S'0.01%'
p7440
tp7441
a(S'351.1'
p7442
S'1.66%'
p7443
tp7444
a(S'345.35'
p7445
S'-0.81%'
p7446
tp7447
a(S'348.18'
p7448
S'-2.19%'
p7449
tp7450
a(S'355.97'
p7451
S'0.96%'
p7452
tp7453
a(S'352.6'
p7454
S'1.44%'
p7455
tp7456
a(S'347.59'
p7457
S'0.56%'
p7458
tp7459
a(S'345.64'
p7460
S'0.56%'
p7461
tp7462
a(S'343.7'
p7463
S'1.18%'
p7464
tp7465
a(S'339.7'
p7466
S'0.96%'
p7467
tp7468
a(S'336.48'
p7469
S'1.12%'
p7470
tp7471
a(S'332.76'
p7472
S'2.86%'
p7473
tp7474
a(S'323.51'
p7475
S'1.43%'
p7476
tp7477
a(S'318.96'
p7478
S'2.99%'
p7479
tp7480
a(S'309.69'
p7481
S'1.62%'
p7482
tp7483
a(S'304.75'
p7484
S'4.28%'
p7485
tp7486
a(S'292.25'
p7487
S'2.24%'
p7488
tp7489
a(S'285.84'
p7490
S'0.38%'
p7491
tp7492
a(S'284.77'
p7493
S'-0.09%'
p7494
tp7495
a(S'285.03'
p7496
S'3.35%'
p7497
tp7498
a(S'275.79'
p7499
S'-1.52%'
p7500
tp7501
a(S'280.04'
p7502
S'-4.63%'
p7503
tp7504
a(S'293.63'
p7505
S'-6.94%'
p7506
tp7507
a(S'315.52'
p7508
S'-7.35%'
p7509
tp7510
a(S'340.54'
p7511
S'-1.26%'
p7512
tp7513
a(S'344.89'
p7514
S'-2.47%'
p7515
tp7516
a(S'353.61'
p7517
S'0.05%'
p7518
tp7519
a(S'353.43'
p7520
S'1.20%'
p7521
tp7522
a(S'349.23'
p7523
S'0.66%'
p7524
tp7525
a(S'346.94'
p7526
S'-1.89%'
p7527
tp7528
a(S'353.64'
p7529
S'-0.27%'
p7530
tp7531
a(S'354.58'
p7532
S'-1.81%'
p7533
tp7534
a(S'361.1'
p7535
S'-0.31%'
p7536
tp7537
a(S'362.21'
p7538
S'-1.14%'
p7539
tp7540
a(S'366.37'
p7541
S'3.02%'
p7542
tp7543
a(S'355.63'
p7544
S'1.77%'
p7545
tp7546
a(S'349.43'
p7547
S'-1.40%'
p7548
tp7549
a(S'354.38'
p7550
S'-0.26%'
p7551
tp7552
a(S'355.29'
p7553
S'0.37%'
p7554
tp7555
a(S'353.99'
p7556
S'2.29%'
p7557
tp7558
a(S'346.06'
p7559
S'1.69%'
p7560
tp7561
a(S'340.3'
p7562
S'0.82%'
p7563
tp7564
a(S'337.53'
p7565
S'1.20%'
p7566
tp7567
a(S'333.53'
p7568
S'1.70%'
p7569
tp7570
a(S'327.96'
p7571
S'1.77%'
p7572
tp7573
a(S'322.25'
p7574
S'2.26%'
p7575
tp7576
a(S'315.14'
p7577
S'1.61%'
p7578
tp7579
a(S'310.16'
p7580
S'0.32%'
p7581
tp7582
a(S'309.16'
p7583
S'0.58%'
p7584
tp7585
a(S'307.37'
p7586
S'0.19%'
p7587
tp7588
a(S'306.79'
p7589
S'0.00%'
p7590
tp7591
a(S'306.78'
p7592
S'-0.11%'
p7593
tp7594
a(S'307.12'
p7595
S'1.58%'
p7596
tp7597
a(S'302.34'
p7598
S'2.05%'
p7599
tp7600
a(S'296.26'
p7601
S'0.69%'
p7602
tp7603
a(S'294.23'
p7604
S'2.76%'
p7605
tp7606
a(S'286.33'
p7607
S'1.89%'
p7608
tp7609
a(S'281.02'
p7610
S'1.30%'
p7611
tp7612
a(S'277.42'
p7613
S'-1.03%'
p7614
tp7615
a(S'280.31'
p7616
S'1.61%'
p7617
tp7618
a(S'275.86'
p7619
S'1.04%'
p7620
tp7621
a(S'273.01'
p7622
S'2.26%'
p7623
tp7624
a(S'266.98'
p7625
S'1.18%'
p7626
tp7627
a(S'263.86'
p7628
S'-0.93%'
p7629
tp7630
a(S'266.34'
p7631
S'-1.10%'
p7632
tp7633
a(S'269.29'
p7634
S'0.12%'
p7635
tp7636
a(S'268.97'
p7637
S'1.01%'
p7638
tp7639
a(S'266.28'
p7640
S'0.01%'
p7641
tp7642
a(S'266.26'
p7643
S'1.25%'
p7644
tp7645
a(S'262.96'
p7646
S'2.11%'
p7647
tp7648
a(S'257.53'
p7649
S'0.59%'
p7650
tp7651
a(S'256.02'
p7652
S'0.57%'
p7653
tp7654
a(S'254.57'
p7655
S'0.41%'
p7656
tp7657
a(S'253.54'
p7658
S'-0.29%'
p7659
tp7660
a(S'254.28'
p7661
S'0.09%'
p7662
tp7663
a(S'254.06'
p7664
S'-0.13%'
p7665
tp7666
a(S'254.39'
p7667
S'0.32%'
p7668
tp7669
a(S'253.59'
p7670
S'0.41%'
p7671
tp7672
a(S'252.56'
p7673
S'0.39%'
p7674
tp7675
a(S'251.58'
p7676
S'1.60%'
p7677
tp7678
a(S'247.61'
p7679
S'2.32%'
p7680
tp7681
a(S'241.99'
p7682
S'0.88%'
p7683
tp7684
a(S'239.87'
p7685
S'1.21%'
p7686
tp7687
a(S'237.01'
p7688
S'1.68%'
p7689
tp7690
a(S'233.09'
p7691
S'0.73%'
p7692
tp7693
a(S'231.39'
p7694
S'0.34%'
p7695
tp7696
a(S'230.6'
p7697
S'1.10%'
p7698
tp7699
a(S'228.08'
p7700
S'1.96%'
p7701
tp7702
a(S'223.69'
p7703
S'1.55%'
p7704
tp7705
a(S'220.28'
p7706
S'0.76%'
p7707
tp7708
a(S'218.62'
p7709
S'0.11%'
p7710
tp7711
a(S'218.39'
p7712
S'1.47%'
p7713
tp7714
a(S'215.23'
p7715
S'0.54%'
p7716
tp7717
a(S'214.07'
p7718
S'1.76%'
p7719
tp7720
a(S'210.36'
p7721
S'1.00%'
p7722
tp7723
a(S'208.27'
p7724
S'0.84%'
p7725
tp7726
a(S'206.53'
p7727
S'0.83%'
p7728
tp7729
a(S'204.82'
p7730
S'-0.95%'
p7731
tp7732
a(S'206.79'
p7733
S'0.09%'
p7734
tp7735
a(S'206.61'
p7736
S'0.85%'
p7737
tp7738
a(S'204.87'
p7739
S'0.80%'
p7740
tp7741
a(S'203.25'
p7742
S'0.70%'
p7743
tp7744
a(S'201.84'
p7745
S'-0.27%'
p7746
tp7747
a(S'202.39'
p7748
S'-0.03%'
p7749
tp7750
a(S'202.45'
p7751
S'-0.24%'
p7752
tp7753
a(S'202.93'
p7754
S'0.38%'
p7755
tp7756
a(S'202.17'
p7757
S'0.65%'
p7758
tp7759
a(S'200.87'
p7760
S'-0.49%'
p7761
tp7762
a(S'201.86'
p7763
S'0.93%'
p7764
tp7765
a(S'200'
p7766
S'0.58%'
p7767
tp7768
a(S'198.85'
p7769
S'-0.28%'
p7770
tp7771
a(S'199.41'
p7772
S'0.61%'
p7773
tp7774
a(S'198.21'
p7775
S'1.29%'
p7776
tp7777
a(S'195.69'
p7778
S'0.09%'
p7779
tp7780
a(S'195.51'
p7781
S'0.24%'
p7782
tp7783
a(S'195.04'
p7784
S'1.64%'
p7785
tp7786
a(S'191.9'
p7787
S'1.38%'
p7788
tp7789
a(S'189.28'
p7790
S'0.25%'
p7791
tp7792
a(S'188.81'
p7793
S'-1.82%'
p7794
tp7795
a(S'192.31'
p7796
S'0.64%'
p7797
tp7798
a(S'191.09'
p7799
S'0.64%'
p7800
tp7801
a(S'189.87'
p7802
S'-0.29%'
p7803
tp7804
a(S'190.43'
p7805
S'2.13%'
p7806
tp7807
a(S'186.46'
p7808
S'0.87%'
p7809
tp7810
a(S'184.85'
p7811
S'0.92%'
p7812
tp7813
a(S'183.16'
p7814
S'2.15%'
p7815
tp7816
a(S'179.3'
p7817
S'1.89%'
p7818
tp7819
a(S'175.97'
p7820
S'1.95%'
p7821
tp7822
a(S'172.6'
p7823
S'2.51%'
p7824
tp7825
a(S'168.38'
p7826
S'2.71%'
p7827
tp7828
a(S'163.94'
p7829
S'0.09%'
p7830
tp7831
a(S'163.79'
p7832
S'0.04%'
p7833
tp7834
a(S'163.72'
p7835
S'0.99%'
p7836
tp7837
a(S'162.12'
p7838
S'1.01%'
p7839
tp7840
a(S'160.5'
p7841
S'-2.05%'
p7842
tp7843
a(S'163.86'
p7844
S'0.38%'
p7845
tp7846
a(S'163.24'
p7847
S'0.29%'
p7848
tp7849
a(S'162.76'
p7850
S'0.22%'
p7851
tp7852
a(S'162.4'
p7853
S'1.26%'
p7854
tp7855
a(S'160.38'
p7856
S'1.63%'
p7857
tp7858
a(S'157.8'
p7859
S'1.32%'
p7860
tp7861
a(S'155.75'
p7862
S'1.95%'
p7863
tp7864
a(S'152.77'
p7865
S'-4.76%'
p7866
tp7867
a(S'160.4'
p7868
S'0.57%'
p7869
tp7870
a(S'159.49'
p7871
S'1.15%'
p7872
tp7873
a(S'157.68'
p7874
S'0.70%'
p7875
tp7876
a(S'156.59'
p7877
S'0.24%'
p7878
tp7879
a(S'156.22'
p7880
S'1.22%'
p7881
tp7882
a(S'154.33'
p7883
S'1.81%'
p7884
tp7885
a(S'151.59'
p7886
S'1.56%'
p7887
tp7888
a(S'149.26'
p7889
S'1.54%'
p7890
tp7891
a(S'146.99'
p7892
S'0.30%'
p7893
tp7894
a(S'146.55'
p7895
S'1.07%'
p7896
tp7897
a(S'145'
p7898
S'0.73%'
p7899
tp7900
a(S'143.95'
p7901
S'3.12%'
p7902
tp7903
a(S'139.59'
p7904
S'2.40%'
p7905
tp7906
a(S'136.32'
p7907
S'1.26%'
p7908
tp7909
a(S'134.62'
p7910
S'1.03%'
p7911
tp7912
a(S'133.25'
p7913
S'1.27%'
p7914
tp7915
a(S'131.58'
p7916
S'1.10%'
p7917
tp7918
a(S'130.15'
p7919
S'0.56%'
p7920
tp7921
a(S'129.42'
p7922
S'0.53%'
p7923
tp7924
a(S'128.74'
p7925
S'2.35%'
p7926
tp7927
a(S'125.79'
p7928
S'1.53%'
p7929
tp7930
a(S'123.9'
p7931
S'2.26%'
p7932
tp7933
a(S'121.16'
p7934
S'0.19%'
p7935
tp7936
a(S'120.93'
p7937
S'0.22%'
p7938
tp7939
a(S'120.67'
p7940
S'0.98%'
p7941
tp7942
a(S'119.5'
p7943
S'0.72%'
p7944
tp7945
a(S'118.64'
p7946
S'1.73%'
p7947
tp7948
a(S'116.62'
p7949
S'2.91%'
p7950
tp7951
a(S'113.32'
p7952
S'1.97%'
p7953
tp7954
a(S'111.13'
p7955
S'1.72%'
p7956
tp7957
a(S'109.25'
p7958
S'-0.03%'
p7959
tp7960
a(S'109.28'
p7961
S'0.23%'
p7962
tp7963
a(S'109.03'
p7964
S'0.37%'
p7965
tp7966
a(S'108.63'
p7967
S'0.80%'
p7968
tp7969
a(S'107.77'
p7970
S'2.53%'
p7971
tp7972
a(S'105.11'
p7973
S'-0.82%'
p7974
tp7975
a(S'105.98'
p7976
S'1.74%'
p7977
tp7978
a(S'104.17'
p7979
S'1.00%'
p7980
tp7981
a(S'103.14'
p7982
S'-0.64%'
p7983
tp7984
a(S'103.8'
p7985
S'1.80%'
p7986
tp7987
a(S'101.96'
p7988
S'-1.25%'
p7989
tp7990
a(S'103.25'
p7991
S'1.70%'
p7992
tp7993
a(S'101.52'
p7994
S'1.86%'
p7995
tp7996
a(S'99.67'
p7997
S'0.23%'
p7998
tp7999
a(S'99.44'
p8000
S'2.41%'
p8001
tp8002
a(S'97.1'
p8003
S'1.89%'
p8004
tp8005
a(S'95.3'
p8006
S'-2.72%'
p8007
tp8008
a(S'97.96'
p8009
S'1.59%'
p8010
tp8011
a(S'96.43'
p8012
S'-0.64%'
p8013
tp8014
a(S'97.05'
p8015
S'-3.24%'
p8016
tp8017
a(S'100.3'
p8018
S'-2.23%'
p8019
tp8020
a(S'102.59'
p8021
S'3.61%'
p8022
tp8023
a(S'99.02'
p8024
S'-3.47%'
p8025
tp8026
a(S'102.58'
p8027
S'2.58%'
p8028
tp8029
a(S'100'
p8030
S'0.00%'
p8031
tp8032
a(S''
p8033
g8033
tp8034
a(g8033
g8033
tp8035
a(g8033
g8033
tp8036
asS'Credit Suisse Dedicated Short Bias Hedge Fund Index'
p8037
(lp8038
(S'30.57'
p8039
S'-3.66%'
p8040
tp8041
a(S'31.73'
p8042
S'-1.09%'
p8043
tp8044
a(S'32.08'
p8045
S'-0.77%'
p8046
tp8047
a(S'32.33'
p8048
S'-1.49%'
p8049
tp8050
a(S'32.82'
p8051
S'-1.65%'
p8052
tp8053
a(S'33.37'
p8054
S'-5.52%'
p8055
tp8056
a(S'35.32'
p8057
S'0.03%'
p8058
tp8059
a(S'35.31'
p8060
S'-5.74%'
p8061
tp8062
a(S'37.46'
p8063
S'0.81%'
p8064
tp8065
a(S'37.16'
p8066
S'-1.51%'
p8067
tp8068
a(S'37.73'
p8069
S'-3.45%'
p8070
tp8071
a(S'39.08'
p8072
S'-1.91%'
p8073
tp8074
a(S'39.84'
p8075
S'-1.65%'
p8076
tp8077
a(S'40.51'
p8078
S'-5.22%'
p8079
tp8080
a(S'42.74'
p8081
S'-2.95%'
p8082
tp8083
a(S'44.04'
p8084
S'-0.43%'
p8085
tp8086
a(S'44.23'
p8087
S'-0.07%'
p8088
tp8089
a(S'44.26'
p8090
S'-3.78%'
p8091
tp8092
a(S'46'
p8093
S'-4.25%'
p8094
tp8095
a(S'48.04'
p8096
S'-0.44%'
p8097
tp8098
a(S'48.25'
p8099
S'-2.72%'
p8100
tp8101
a(S'49.6'
p8102
S'9.03%'
p8103
tp8104
a(S'45.49'
p8105
S'-2.53%'
p8106
tp8107
a(S'46.67'
p8108
S'-1.35%'
p8109
tp8110
a(S'47.31'
p8111
S'-4.66%'
p8112
tp8113
a(S'49.62'
p8114
S'-7.58%'
p8115
tp8116
a(S'53.69'
p8117
S'1.65%'
p8118
tp8119
a(S'52.82'
p8120
S'-0.17%'
p8121
tp8122
a(S'52.91'
p8123
S'-9.59%'
p8124
tp8125
a(S'58.52'
p8126
S'8.45%'
p8127
tp8128
a(S'53.96'
p8129
S'6.56%'
p8130
tp8131
a(S'50.64'
p8132
S'3.01%'
p8133
tp8134
a(S'49.16'
p8135
S'1.57%'
p8136
tp8137
a(S'48.4'
p8138
S'2.20%'
p8139
tp8140
a(S'47.36'
p8141
S'-2.67%'
p8142
tp8143
a(S'48.66'
p8144
S'-1.78%'
p8145
tp8146
a(S'49.54'
p8147
S'-3.37%'
p8148
tp8149
a(S'51.27'
p8150
S'-0.83%'
p8151
tp8152
a(S'51.7'
p8153
S'-5.86%'
p8154
tp8155
a(S'54.92'
p8156
S'-2.36%'
p8157
tp8158
a(S'56.25'
p8159
S'-3.60%'
p8160
tp8161
a(S'58.35'
p8162
S'-11.28%'
p8163
tp8164
a(S'65.77'
p8165
S'5.15%'
p8166
tp8167
a(S'62.55'
p8168
S'-3.52%'
p8169
tp8170
a(S'64.83'
p8171
S'5.45%'
p8172
tp8173
a(S'61.48'
p8174
S'5.84%'
p8175
tp8176
a(S'58.09'
p8177
S'-3.89%'
p8178
tp8179
a(S'60.44'
p8180
S'-6.61%'
p8181
tp8182
a(S'64.72'
p8183
S'-3.20%'
p8184
tp8185
a(S'66.86'
p8186
S'0.27%'
p8187
tp8188
a(S'66.68'
p8189
S'-4.26%'
p8190
tp8191
a(S'69.65'
p8192
S'-2.99%'
p8193
tp8194
a(S'71.8'
p8195
S'4.79%'
p8196
tp8197
a(S'68.52'
p8198
S'-5.27%'
p8199
tp8200
a(S'72.33'
p8201
S'-1.69%'
p8202
tp8203
a(S'73.57'
p8204
S'-7.26%'
p8205
tp8206
a(S'79.33'
p8207
S'-1.96%'
p8208
tp8209
a(S'80.92'
p8210
S'-0.55%'
p8211
tp8212
a(S'81.37'
p8213
S'-9.57%'
p8214
tp8215
a(S'89.98'
p8216
S'-5.47%'
p8217
tp8218
a(S'95.19'
p8219
S'3.22%'
p8220
tp8221
a(S'92.22'
p8222
S'3.69%'
p8223
tp8224
a(S'88.94'
p8225
S'-1.68%'
p8226
tp8227
a(S'90.46'
p8228
S'3.04%'
p8229
tp8230
a(S'87.79'
p8231
S'9.66%'
p8232
tp8233
a(S'80.06'
p8234
S'-6.08%'
p8235
tp8236
a(S'85.24'
p8237
S'-4.50%'
p8238
tp8239
a(S'89.26'
p8240
S'2.98%'
p8241
tp8242
a(S'86.68'
p8243
S'9.02%'
p8244
tp8245
a(S'79.51'
p8246
S'0.86%'
p8247
tp8248
a(S'78.83'
p8249
S'-7.30%'
p8250
tp8251
a(S'85.04'
p8252
S'4.86%'
p8253
tp8254
a(S'81.1'
p8255
S'-0.89%'
p8256
tp8257
a(S'81.83'
p8258
S'5.68%'
p8259
tp8260
a(S'77.43'
p8261
S'0.06%'
p8262
tp8263
a(S'77.38'
p8264
S'10.31%'
p8265
tp8266
a(S'70.15'
p8267
S'-2.49%'
p8268
tp8269
a(S'71.94'
p8270
S'-4.94%'
p8271
tp8272
a(S'75.68'
p8273
S'-1.14%'
p8274
tp8275
a(S'76.55'
p8276
S'7.14%'
p8277
tp8278
a(S'71.45'
p8279
S'1.20%'
p8280
tp8281
a(S'70.6'
p8282
S'-2.20%'
p8283
tp8284
a(S'72.19'
p8285
S'-2.74%'
p8286
tp8287
a(S'74.22'
p8288
S'-0.62%'
p8289
tp8290
a(S'74.68'
p8291
S'0.77%'
p8292
tp8293
a(S'74.11'
p8294
S'1.49%'
p8295
tp8296
a(S'73.02'
p8297
S'0.63%'
p8298
tp8299
a(S'72.56'
p8300
S'-5.46%'
p8301
tp8302
a(S'76.75'
p8303
S'-4.25%'
p8304
tp8305
a(S'80.16'
p8306
S'-3.11%'
p8307
tp8308
a(S'82.73'
p8309
S'-0.72%'
p8310
tp8311
a(S'83.33'
p8312
S'2.89%'
p8313
tp8314
a(S'80.99'
p8315
S'5.15%'
p8316
tp8317
a(S'77.02'
p8318
S'5.39%'
p8319
tp8320
a(S'73.08'
p8321
S'-0.75%'
p8322
tp8323
a(S'73.63'
p8324
S'-3.32%'
p8325
tp8326
a(S'76.16'
p8327
S'0.40%'
p8328
tp8329
a(S'75.86'
p8330
S'-2.98%'
p8331
tp8332
a(S'78.19'
p8333
S'-1.96%'
p8334
tp8335
a(S'79.75'
p8336
S'-1.25%'
p8337
tp8338
a(S'80.76'
p8339
S'2.64%'
p8340
tp8341
a(S'78.68'
p8342
S'3.00%'
p8343
tp8344
a(S'76.39'
p8345
S'2.48%'
p8346
tp8347
a(S'74.54'
p8348
S'-1.66%'
p8349
tp8350
a(S'75.8'
p8351
S'-0.21%'
p8352
tp8353
a(S'75.96'
p8354
S'-5.91%'
p8355
tp8356
a(S'80.73'
p8357
S'5.57%'
p8358
tp8359
a(S'76.47'
p8360
S'3.46%'
p8361
tp8362
a(S'73.91'
p8363
S'3.40%'
p8364
tp8365
a(S'71.48'
p8366
S'6.96%'
p8367
tp8368
a(S'66.83'
p8369
S'-4.87%'
p8370
tp8371
a(S'70.25'
p8372
S'-7.71%'
p8373
tp8374
a(S'76.12'
p8375
S'-1.78%'
p8376
tp8377
a(S'77.5'
p8378
S'-1.91%'
p8379
tp8380
a(S'79.01'
p8381
S'1.27%'
p8382
tp8383
a(S'78.02'
p8384
S'8.12%'
p8385
tp8386
a(S'72.16'
p8387
S'-1.25%'
p8388
tp8389
a(S'73.07'
p8390
S'0.76%'
p8391
tp8392
a(S'72.52'
p8393
S'4.23%'
p8394
tp8395
a(S'69.58'
p8396
S'-2.56%'
p8397
tp8398
a(S'71.41'
p8399
S'0.34%'
p8400
tp8401
a(S'71.17'
p8402
S'-1.73%'
p8403
tp8404
a(S'72.42'
p8405
S'-3.98%'
p8406
tp8407
a(S'75.42'
p8408
S'-1.89%'
p8409
tp8410
a(S'76.87'
p8411
S'-7.56%'
p8412
tp8413
a(S'83.16'
p8414
S'-0.42%'
p8415
tp8416
a(S'83.51'
p8417
S'-1.44%'
p8418
tp8419
a(S'84.73'
p8420
S'-2.06%'
p8421
tp8422
a(S'86.51'
p8423
S'-6.01%'
p8424
tp8425
a(S'92.04'
p8426
S'-5.45%'
p8427
tp8428
a(S'97.35'
p8429
S'-6.36%'
p8430
tp8431
a(S'103.96'
p8432
S'1.23%'
p8433
tp8434
a(S'102.7'
p8435
S'-1.73%'
p8436
tp8437
a(S'104.51'
p8438
S'-2.73%'
p8439
tp8440
a(S'107.44'
p8441
S'4.13%'
p8442
tp8443
a(S'103.18'
p8444
S'-5.89%'
p8445
tp8446
a(S'109.64'
p8447
S'-0.66%'
p8448
tp8449
a(S'110.37'
p8450
S'8.10%'
p8451
tp8452
a(S'102.1'
p8453
S'-1.58%'
p8454
tp8455
a(S'103.74'
p8456
S'4.41%'
p8457
tp8458
a(S'99.36'
p8459
S'7.63%'
p8460
tp8461
a(S'92.32'
p8462
S'1.19%'
p8463
tp8464
a(S'91.23'
p8465
S'2.05%'
p8466
tp8467
a(S'89.4'
p8468
S'-5.46%'
p8469
tp8470
a(S'94.56'
p8471
S'2.93%'
p8472
tp8473
a(S'91.87'
p8474
S'1.02%'
p8475
tp8476
a(S'90.94'
p8477
S'-3.03%'
p8478
tp8479
a(S'93.78'
p8480
S'-5.44%'
p8481
tp8482
a(S'99.18'
p8483
S'-4.97%'
p8484
tp8485
a(S'104.37'
p8486
S'2.91%'
p8487
tp8488
a(S'101.42'
p8489
S'3.67%'
p8490
tp8491
a(S'97.83'
p8492
S'4.14%'
p8493
tp8494
a(S'93.94'
p8495
S'-0.22%'
p8496
tp8497
a(S'94.15'
p8498
S'-2.73%'
p8499
tp8500
a(S'96.79'
p8501
S'-7.52%'
p8502
tp8503
a(S'104.66'
p8504
S'3.97%'
p8505
tp8506
a(S'100.66'
p8507
S'8.27%'
p8508
tp8509
a(S'92.97'
p8510
S'-1.43%'
p8511
tp8512
a(S'94.32'
p8513
S'0.86%'
p8514
tp8515
a(S'93.52'
p8516
S'13.76%'
p8517
tp8518
a(S'82.21'
p8519
S'6.15%'
p8520
tp8521
a(S'77.45'
p8522
S'9.89%'
p8523
tp8524
a(S'70.48'
p8525
S'-7.23%'
p8526
tp8527
a(S'75.97'
p8528
S'3.59%'
p8529
tp8530
a(S'73.34'
p8531
S'-6.99%'
p8532
tp8533
a(S'78.85'
p8534
S'6.14%'
p8535
tp8536
a(S'74.29'
p8537
S'2.29%'
p8538
tp8539
a(S'72.63'
p8540
S'-5.94%'
p8541
tp8542
a(S'77.22'
p8543
S'-8.65%'
p8544
tp8545
a(S'84.53'
p8546
S'3.74%'
p8547
tp8548
a(S'81.48'
p8549
S'-6.60%'
p8550
tp8551
a(S'87.24'
p8552
S'-6.48%'
p8553
tp8554
a(S'93.28'
p8555
S'1.85%'
p8556
tp8557
a(S'91.59'
p8558
S'1.74%'
p8559
tp8560
a(S'90.02'
p8561
S'4.32%'
p8562
tp8563
a(S'86.29'
p8564
S'-0.02%'
p8565
tp8566
a(S'86.31'
p8567
S'-2.36%'
p8568
tp8569
a(S'88.4'
p8570
S'0.43%'
p8571
tp8572
a(S'88.02'
p8573
S'-3.75%'
p8574
tp8575
a(S'91.45'
p8576
S'-1.77%'
p8577
tp8578
a(S'93.1'
p8579
S'5.59%'
p8580
tp8581
a(S'88.17'
p8582
S'-7.18%'
p8583
tp8584
a(S'94.99'
p8585
S'-5.75%'
p8586
tp8587
a(S'100.79'
p8588
S'-7.12%'
p8589
tp8590
a(S'108.52'
p8591
S'-8.69%'
p8592
tp8593
a(S'118.85'
p8594
S'-4.98%'
p8595
tp8596
a(S'125.08'
p8597
S'22.71%'
p8598
tp8599
a(S'101.93'
p8600
S'2.72%'
p8601
tp8602
a(S'99.23'
p8603
S'-2.34%'
p8604
tp8605
a(S'101.61'
p8606
S'10.89%'
p8607
tp8608
a(S'91.63'
p8609
S'0.86%'
p8610
tp8611
a(S'90.85'
p8612
S'-2.42%'
p8613
tp8614
a(S'93.1'
p8615
S'-6.89%'
p8616
tp8617
a(S'99.99'
p8618
S'-1.05%'
p8619
tp8620
a(S'101.05'
p8621
S'1.04%'
p8622
tp8623
a(S'100.01'
p8624
S'2.93%'
p8625
tp8626
a(S'97.16'
p8627
S'6.75%'
p8628
tp8629
a(S'91.02'
p8630
S'-3.32%'
p8631
tp8632
a(S'94.15'
p8633
S'-0.07%'
p8634
tp8635
a(S'94.22'
p8636
S'-6.32%'
p8637
tp8638
a(S'100.58'
p8639
S'-0.84%'
p8640
tp8641
a(S'101.43'
p8642
S'-6.50%'
p8643
tp8644
a(S'108.48'
p8645
S'-0.80%'
p8646
tp8647
a(S'109.36'
p8648
S'8.03%'
p8649
tp8650
a(S'101.23'
p8651
S'2.50%'
p8652
tp8653
a(S'98.76'
p8654
S'-1.86%'
p8655
tp8656
a(S'100.63'
p8657
S'1.31%'
p8658
tp8659
a(S'99.33'
p8660
S'-2.94%'
p8661
tp8662
a(S'102.34'
p8663
S'4.30%'
p8664
tp8665
a(S'98.12'
p8666
S'-5.93%'
p8667
tp8668
a(S'104.31'
p8669
S'-3.43%'
p8670
tp8671
a(S'108.01'
p8672
S'9.83%'
p8673
tp8674
a(S'98.34'
p8675
S'5.09%'
p8676
tp8677
a(S'93.58'
p8678
S'0.02%'
p8679
tp8680
a(S'93.56'
p8681
S'-6.64%'
p8682
tp8683
a(S'100.21'
p8684
S'-0.87%'
p8685
tp8686
a(S'101.09'
p8687
S'-5.64%'
p8688
tp8689
a(S'107.13'
p8690
S'0.63%'
p8691
tp8692
a(S'106.46'
p8693
S'4.94%'
p8694
tp8695
a(S'101.45'
p8696
S'-0.97%'
p8697
tp8698
a(S'102.44'
p8699
S'6.35%'
p8700
tp8701
a(S'96.32'
p8702
S'-2.93%'
p8703
tp8704
a(S'99.23'
p8705
S'0.82%'
p8706
tp8707
a(S'98.42'
p8708
S'-5.94%'
p8709
tp8710
a(S'104.63'
p8711
S'-6.91%'
p8712
tp8713
a(S'112.4'
p8714
S'-1.25%'
p8715
tp8716
a(S'113.82'
p8717
S'-0.37%'
p8718
tp8719
a(S'114.24'
p8720
S'0.38%'
p8721
tp8722
a(S'113.81'
p8723
S'-2.24%'
p8724
tp8725
a(S'116.42'
p8726
S'1.31%'
p8727
tp8728
a(S'114.91'
p8729
S'-0.19%'
p8730
tp8731
a(S'115.13'
p8732
S'3.03%'
p8733
tp8734
a(S'111.74'
p8735
S'-0.41%'
p8736
tp8737
a(S'112.2'
p8738
S'1.58%'
p8739
tp8740
a(S'110.46'
p8741
S'-5.66%'
p8742
tp8743
a(S'117.09'
p8744
S'-1.18%'
p8745
tp8746
a(S'118.49'
p8747
S'6.35%'
p8748
tp8749
a(S'111.42'
p8750
S'2.25%'
p8751
tp8752
a(S'108.97'
p8753
S'1.28%'
p8754
tp8755
a(S'107.59'
p8756
S'7.19%'
p8757
tp8758
a(S'100.37'
p8759
S'2.00%'
p8760
tp8761
a(S'98.4'
p8762
S'-1.60%'
p8763
tp8764
a(S'100'
p8765
S'0.00%'
p8766
tp8767
asS'Credit Suisse Fixed Income Arbitrage Hedge Fund Index'
p8768
(lp8769
(S'293.27'
p8770
S'0.66%'
p8771
tp8772
a(S'291.36'
p8773
S'1.00%'
p8774
tp8775
a(S'288.48'
p8776
S'0.18%'
p8777
tp8778
a(S'287.96'
p8779
S'0.50%'
p8780
tp8781
a(S'286.54'
p8782
S'0.61%'
p8783
tp8784
a(S'284.8'
p8785
S'0.51%'
p8786
tp8787
a(S'283.36'
p8788
S'0.21%'
p8789
tp8790
a(S'282.77'
p8791
S'0.38%'
p8792
tp8793
a(S'281.69'
p8794
S'-1.14%'
p8795
tp8796
a(S'284.94'
p8797
S'0.01%'
p8798
tp8799
a(S'284.91'
p8800
S'0.34%'
p8801
tp8802
a(S'283.95'
p8803
S'0.61%'
p8804
tp8805
a(S'282.24'
p8806
S'0.49%'
p8807
tp8808
a(S'280.87'
p8809
S'1.06%'
p8810
tp8811
a(S'277.93'
p8812
S'0.68%'
p8813
tp8814
a(S'276.05'
p8815
S'0.48%'
p8816
tp8817
a(S'274.74'
p8818
S'0.87%'
p8819
tp8820
a(S'272.37'
p8821
S'1.26%'
p8822
tp8823
a(S'268.99'
p8824
S'1.02%'
p8825
tp8826
a(S'266.27'
p8827
S'1.62%'
p8828
tp8829
a(S'262.02'
p8830
S'0.76%'
p8831
tp8832
a(S'260.05'
p8833
S'0.24%'
p8834
tp8835
a(S'259.43'
p8836
S'0.69%'
p8837
tp8838
a(S'257.65'
p8839
S'0.74%'
p8840
tp8841
a(S'255.76'
p8842
S'1.00%'
p8843
tp8844
a(S'253.22'
p8845
S'1.17%'
p8846
tp8847
a(S'250.29'
p8848
S'0.38%'
p8849
tp8850
a(S'249.34'
p8851
S'0.50%'
p8852
tp8853
a(S'248.11'
p8854
S'0.14%'
p8855
tp8856
a(S'247.76'
p8857
S'-0.19%'
p8858
tp8859
a(S'248.22'
p8860
S'-0.27%'
p8861
tp8862
a(S'248.9'
p8863
S'0.55%'
p8864
tp8865
a(S'247.53'
p8866
S'0.06%'
p8867
tp8868
a(S'247.39'
p8869
S'0.21%'
p8870
tp8871
a(S'246.86'
p8872
S'0.92%'
p8873
tp8874
a(S'244.6'
p8875
S'-0.31%'
p8876
tp8877
a(S'245.36'
p8878
S'0.93%'
p8879
tp8880
a(S'243.09'
p8881
S'1.68%'
p8882
tp8883
a(S'239.08'
p8884
S'0.61%'
p8885
tp8886
a(S'237.62'
p8887
S'0.74%'
p8888
tp8889
a(S'235.87'
p8890
S'1.10%'
p8891
tp8892
a(S'233.3'
p8893
S'1.55%'
p8894
tp8895
a(S'229.74'
p8896
S'1.24%'
p8897
tp8898
a(S'226.92'
p8899
S'1.20%'
p8900
tp8901
a(S'224.22'
p8902
S'0.92%'
p8903
tp8904
a(S'222.17'
p8905
S'-0.79%'
p8906
tp8907
a(S'223.94'
p8908
S'1.75%'
p8909
tp8910
a(S'220.08'
p8911
S'1.44%'
p8912
tp8913
a(S'216.95'
p8914
S'0.07%'
p8915
tp8916
a(S'216.79'
p8917
S'2.02%'
p8918
tp8919
a(S'212.5'
p8920
S'0.76%'
p8921
tp8922
a(S'210.9'
p8923
S'1.71%'
p8924
tp8925
a(S'207.35'
p8926
S'1.94%'
p8927
tp8928
a(S'203.4'
p8929
S'2.77%'
p8930
tp8931
a(S'197.92'
p8932
S'2.38%'
p8933
tp8934
a(S'193.31'
p8935
S'3.65%'
p8936
tp8937
a(S'186.51'
p8938
S'1.83%'
p8939
tp8940
a(S'183.16'
p8941
S'4.33%'
p8942
tp8943
a(S'175.55'
p8944
S'1.93%'
p8945
tp8946
a(S'172.23'
p8947
S'1.74%'
p8948
tp8949
a(S'169.28'
p8950
S'1.01%'
p8951
tp8952
a(S'167.59'
p8953
S'0.48%'
p8954
tp8955
a(S'166.79'
p8956
S'-0.80%'
p8957
tp8958
a(S'168.13'
p8959
S'-5.60%'
p8960
tp8961
a(S'178.11'
p8962
S'-14.04%'
p8963
tp8964
a(S'207.19'
p8965
S'-6.80%'
p8966
tp8967
a(S'222.3'
p8968
S'-0.70%'
p8969
tp8970
a(S'223.86'
p8971
S'-0.37%'
p8972
tp8973
a(S'224.7'
p8974
S'-0.47%'
p8975
tp8976
a(S'225.76'
p8977
S'1.26%'
p8978
tp8979
a(S'222.95'
p8980
S'2.07%'
p8981
tp8982
a(S'218.43'
p8983
S'-6.43%'
p8984
tp8985
a(S'233.43'
p8986
S'-0.66%'
p8987
tp8988
a(S'234.97'
p8989
S'0.28%'
p8990
tp8991
a(S'234.31'
p8992
S'0.21%'
p8993
tp8994
a(S'233.82'
p8995
S'-0.25%'
p8996
tp8997
a(S'234.41'
p8998
S'1.15%'
p8999
tp9000
a(S'231.74'
p9001
S'1.85%'
p9002
tp9003
a(S'227.53'
p9004
S'-0.87%'
p9005
tp9006
a(S'229.52'
p9007
S'-1.96%'
p9008
tp9009
a(S'234.12'
p9010
S'0.21%'
p9011
tp9012
a(S'233.62'
p9013
S'0.24%'
p9014
tp9015
a(S'233.05'
p9016
S'1.00%'
p9017
tp9018
a(S'230.74'
p9019
S'0.90%'
p9020
tp9021
a(S'228.69'
p9022
S'1.21%'
p9023
tp9024
a(S'225.95'
p9025
S'0.12%'
p9026
tp9027
a(S'225.67'
p9028
S'0.72%'
p9029
tp9030
a(S'224.06'
p9031
S'1.16%'
p9032
tp9033
a(S'221.48'
p9034
S'0.74%'
p9035
tp9036
a(S'219.85'
p9037
S'-0.02%'
p9038
tp9039
a(S'219.89'
p9040
S'-0.02%'
p9041
tp9042
a(S'219.94'
p9043
S'0.24%'
p9044
tp9045
a(S'219.41'
p9046
S'0.62%'
p9047
tp9048
a(S'218.05'
p9049
S'0.81%'
p9050
tp9051
a(S'216.3'
p9052
S'2.05%'
p9053
tp9054
a(S'211.95'
p9055
S'0.57%'
p9056
tp9057
a(S'210.75'
p9058
S'0.06%'
p9059
tp9060
a(S'210.63'
p9061
S'1.42%'
p9062
tp9063
a(S'207.68'
p9064
S'0.45%'
p9065
tp9066
a(S'206.74'
p9067
S'-0.58%'
p9068
tp9069
a(S'207.95'
p9070
S'0.27%'
p9071
tp9072
a(S'207.4'
p9073
S'0.12%'
p9074
tp9075
a(S'207.16'
p9076
S'0.51%'
p9077
tp9078
a(S'206.11'
p9079
S'1.00%'
p9080
tp9081
a(S'204.07'
p9082
S'-0.52%'
p9083
tp9084
a(S'205.13'
p9085
S'-1.24%'
p9086
tp9087
a(S'207.7'
p9088
S'-0.63%'
p9089
tp9090
a(S'209.02'
p9091
S'0.27%'
p9092
tp9093
a(S'208.45'
p9094
S'0.91%'
p9095
tp9096
a(S'206.57'
p9097
S'0.09%'
p9098
tp9099
a(S'206.38'
p9100
S'0.61%'
p9101
tp9102
a(S'205.13'
p9103
S'1.12%'
p9104
tp9105
a(S'202.85'
p9106
S'1.14%'
p9107
tp9108
a(S'200.57'
p9109
S'-0.78%'
p9110
tp9111
a(S'202.15'
p9112
S'-0.41%'
p9113
tp9114
a(S'202.98'
p9115
S'0.70%'
p9116
tp9117
a(S'201.56'
p9118
S'0.71%'
p9119
tp9120
a(S'200.14'
p9121
S'0.63%'
p9122
tp9123
a(S'198.88'
p9124
S'1.34%'
p9125
tp9126
a(S'196.25'
p9127
S'-0.49%'
p9128
tp9129
a(S'197.21'
p9130
S'0.87%'
p9131
tp9132
a(S'195.51'
p9133
S'1.23%'
p9134
tp9135
a(S'193.14'
p9136
S'0.80%'
p9137
tp9138
a(S'191.6'
p9139
S'0.52%'
p9140
tp9141
a(S'190.6'
p9142
S'0.46%'
p9143
tp9144
a(S'189.73'
p9145
S'1.16%'
p9146
tp9147
a(S'187.56'
p9148
S'0.21%'
p9149
tp9150
a(S'187.17'
p9151
S'-0.98%'
p9152
tp9153
a(S'189.02'
p9154
S'0.34%'
p9155
tp9156
a(S'188.38'
p9157
S'1.28%'
p9158
tp9159
a(S'186'
p9160
S'1.25%'
p9161
tp9162
a(S'183.7'
p9163
S'0.42%'
p9164
tp9165
a(S'182.94'
p9166
S'0.99%'
p9167
tp9168
a(S'181.14'
p9169
S'1.26%'
p9170
tp9171
a(S'178.88'
p9172
S'1.32%'
p9173
tp9174
a(S'176.55'
p9175
S'-0.53%'
p9176
tp9177
a(S'177.49'
p9178
S'-2.27%'
p9179
tp9180
a(S'181.61'
p9181
S'-1.14%'
p9182
tp9183
a(S'183.7'
p9184
S'1.23%'
p9185
tp9186
a(S'181.46'
p9187
S'1.08%'
p9188
tp9189
a(S'179.52'
p9190
S'0.65%'
p9191
tp9192
a(S'178.36'
p9193
S'1.44%'
p9194
tp9195
a(S'175.82'
p9196
S'1.35%'
p9197
tp9198
a(S'173.48'
p9199
S'0.63%'
p9200
tp9201
a(S'172.39'
p9202
S'0.87%'
p9203
tp9204
a(S'170.9'
p9205
S'1.03%'
p9206
tp9207
a(S'169.15'
p9208
S'0.23%'
p9209
tp9210
a(S'168.76'
p9211
S'-0.27%'
p9212
tp9213
a(S'169.22'
p9214
S'1.55%'
p9215
tp9216
a(S'166.64'
p9217
S'0.18%'
p9218
tp9219
a(S'166.34'
p9220
S'0.64%'
p9221
tp9222
a(S'165.28'
p9223
S'0.91%'
p9224
tp9225
a(S'163.79'
p9226
S'0.50%'
p9227
tp9228
a(S'162.97'
p9229
S'0.52%'
p9230
tp9231
a(S'162.13'
p9232
S'1.32%'
p9233
tp9234
a(S'160.02'
p9235
S'0.24%'
p9236
tp9237
a(S'159.63'
p9238
S'0.53%'
p9239
tp9240
a(S'158.79'
p9241
S'1.42%'
p9242
tp9243
a(S'156.56'
p9244
S'0.32%'
p9245
tp9246
a(S'156.06'
p9247
S'0.70%'
p9248
tp9249
a(S'154.97'
p9250
S'0.29%'
p9251
tp9252
a(S'154.52'
p9253
S'0.75%'
p9254
tp9255
a(S'153.37'
p9256
S'0.67%'
p9257
tp9258
a(S'152.35'
p9259
S'0.55%'
p9260
tp9261
a(S'151.51'
p9262
S'0.93%'
p9263
tp9264
a(S'150.12'
p9265
S'0.02%'
p9266
tp9267
a(S'150.09'
p9268
S'0.93%'
p9269
tp9270
a(S'148.7'
p9271
S'-0.15%'
p9272
tp9273
a(S'148.92'
p9274
S'0.57%'
p9275
tp9276
a(S'148.08'
p9277
S'0.54%'
p9278
tp9279
a(S'147.29'
p9280
S'0.97%'
p9281
tp9282
a(S'145.87'
p9283
S'0.78%'
p9284
tp9285
a(S'144.74'
p9286
S'0.91%'
p9287
tp9288
a(S'143.43'
p9289
S'0.74%'
p9290
tp9291
a(S'142.38'
p9292
S'-0.41%'
p9293
tp9294
a(S'142.97'
p9295
S'0.49%'
p9296
tp9297
a(S'142.27'
p9298
S'0.75%'
p9299
tp9300
a(S'141.21'
p9301
S'0.88%'
p9302
tp9303
a(S'139.98'
p9304
S'1.63%'
p9305
tp9306
a(S'137.73'
p9307
S'1.34%'
p9308
tp9309
a(S'135.91'
p9310
S'1.52%'
p9311
tp9312
a(S'133.88'
p9313
S'1.90%'
p9314
tp9315
a(S'131.38'
p9316
S'1.73%'
p9317
tp9318
a(S'129.14'
p9319
S'1.55%'
p9320
tp9321
a(S'127.17'
p9322
S'-6.96%'
p9323
tp9324
a(S'136.69'
p9325
S'-3.74%'
p9326
tp9327
a(S'142'
p9328
S'-1.46%'
p9329
tp9330
a(S'144.11'
p9331
S'0.48%'
p9332
tp9333
a(S'143.42'
p9334
S'-1.08%'
p9335
tp9336
a(S'144.98'
p9337
S'-0.21%'
p9338
tp9339
a(S'145.28'
p9340
S'-0.01%'
p9341
tp9342
a(S'145.3'
p9343
S'1.61%'
p9344
tp9345
a(S'143'
p9346
S'0.81%'
p9347
tp9348
a(S'141.85'
p9349
S'-0.84%'
p9350
tp9351
a(S'143.05'
p9352
S'0.71%'
p9353
tp9354
a(S'142.04'
p9355
S'0.40%'
p9356
tp9357
a(S'141.48'
p9358
S'-1.58%'
p9359
tp9360
a(S'143.75'
p9361
S'1.15%'
p9362
tp9363
a(S'142.12'
p9364
S'0.82%'
p9365
tp9366
a(S'140.97'
p9367
S'1.09%'
p9368
tp9369
a(S'139.45'
p9370
S'0.87%'
p9371
tp9372
a(S'138.25'
p9373
S'1.01%'
p9374
tp9375
a(S'136.87'
p9376
S'1.24%'
p9377
tp9378
a(S'135.19'
p9379
S'0.72%'
p9380
tp9381
a(S'134.22'
p9382
S'1.10%'
p9383
tp9384
a(S'132.76'
p9385
S'1.48%'
p9386
tp9387
a(S'130.83'
p9388
S'1.75%'
p9389
tp9390
a(S'128.58'
p9391
S'1.17%'
p9392
tp9393
a(S'127.09'
p9394
S'1.16%'
p9395
tp9396
a(S'125.63'
p9397
S'1.47%'
p9398
tp9399
a(S'123.81'
p9400
S'1.04%'
p9401
tp9402
a(S'122.53'
p9403
S'1.34%'
p9404
tp9405
a(S'120.91'
p9406
S'1.25%'
p9407
tp9408
a(S'119.42'
p9409
S'1.09%'
p9410
tp9411
a(S'118.13'
p9412
S'1.35%'
p9413
tp9414
a(S'116.56'
p9415
S'0.77%'
p9416
tp9417
a(S'115.67'
p9418
S'1.06%'
p9419
tp9420
a(S'114.46'
p9421
S'1.43%'
p9422
tp9423
a(S'112.85'
p9424
S'1.07%'
p9425
tp9426
a(S'111.65'
p9427
S'1.68%'
p9428
tp9429
a(S'109.8'
p9430
S'1.14%'
p9431
tp9432
a(S'108.56'
p9433
S'1.04%'
p9434
tp9435
a(S'107.44'
p9436
S'0.77%'
p9437
tp9438
a(S'106.62'
p9439
S'1.12%'
p9440
tp9441
a(S'105.44'
p9442
S'0.52%'
p9443
tp9444
a(S'104.89'
p9445
S'2.01%'
p9446
tp9447
a(S'102.82'
p9448
S'2.02%'
p9449
tp9450
a(S'100.78'
p9451
S'-0.44%'
p9452
tp9453
a(S'101.23'
p9454
S'0.65%'
p9455
tp9456
a(S'100.58'
p9457
S'0.27%'
p9458
tp9459
a(S'100.31'
p9460
S'0.57%'
p9461
tp9462
a(S'99.74'
p9463
S'0.69%'
p9464
tp9465
a(S'99.06'
p9466
S'0.89%'
p9467
tp9468
a(S'98.19'
p9469
S'0.70%'
p9470
tp9471
a(S'97.51'
p9472
S'-0.09%'
p9473
tp9474
a(S'97.6'
p9475
S'-0.18%'
p9476
tp9477
a(S'97.78'
p9478
S'-0.40%'
p9479
tp9480
a(S'98.17'
p9481
S'0.79%'
p9482
tp9483
a(S'97.4'
p9484
S'-0.20%'
p9485
tp9486
a(S'97.6'
p9487
S'-1.68%'
p9488
tp9489
a(S'99.27'
p9490
S'-2.00%'
p9491
tp9492
a(S'101.3'
p9493
S'1.30%'
p9494
tp9495
a(S'100'
p9496
S'0.00%'
p9497
tp9498
asS'Credit Suisse Convertible Arbitrage Hedge Fund Index'
p9499
(lp9500
(S'428.25'
p9501
S'0.14%'
p9502
tp9503
a(S'427.65'
p9504
S'2.09%'
p9505
tp9506
a(S'418.88'
p9507
S'0.54%'
p9508
tp9509
a(S'416.65'
p9510
S'-0.20%'
p9511
tp9512
a(S'417.5'
p9513
S'0.92%'
p9514
tp9515
a(S'413.68'
p9516
S'0.24%'
p9517
tp9518
a(S'412.71'
p9519
S'0.72%'
p9520
tp9521
a(S'409.77'
p9522
S'-0.08%'
p9523
tp9524
a(S'410.1'
p9525
S'-0.33%'
p9526
tp9527
a(S'411.46'
p9528
S'1.30%'
p9529
tp9530
a(S'406.19'
p9531
S'0.14%'
p9532
tp9533
a(S'405.62'
p9534
S'0.72%'
p9535
tp9536
a(S'402.71'
p9537
S'-0.07%'
p9538
tp9539
a(S'402.98'
p9540
S'2.01%'
p9541
tp9542
a(S'395.05'
p9543
S'1.38%'
p9544
tp9545
a(S'389.69'
p9546
S'0.22%'
p9547
tp9548
a(S'388.83'
p9549
S'0.25%'
p9550
tp9551
a(S'387.86'
p9552
S'0.40%'
p9553
tp9554
a(S'386.32'
p9555
S'0.44%'
p9556
tp9557
a(S'384.64'
p9558
S'0.86%'
p9559
tp9560
a(S'381.35'
p9561
S'0.33%'
p9562
tp9563
a(S'380.1'
p9564
S'-0.84%'
p9565
tp9566
a(S'383.31'
p9567
S'-0.23%'
p9568
tp9569
a(S'384.21'
p9570
S'0.55%'
p9571
tp9572
a(S'382.09'
p9573
S'1.88%'
p9574
tp9575
a(S'375.04'
p9576
S'2.36%'
p9577
tp9578
a(S'366.39'
p9579
S'0.62%'
p9580
tp9581
a(S'364.12'
p9582
S'-0.60%'
p9583
tp9584
a(S'366.3'
p9585
S'1.18%'
p9586
tp9587
a(S'362.04'
p9588
S'-1.77%'
p9589
tp9590
a(S'368.55'
p9591
S'-1.73%'
p9592
tp9593
a(S'375.05'
p9594
S'-0.14%'
p9595
tp9596
a(S'375.59'
p9597
S'-0.86%'
p9598
tp9599
a(S'378.84'
p9600
S'0.02%'
p9601
tp9602
a(S'378.76'
p9603
S'0.06%'
p9604
tp9605
a(S'378.54'
p9606
S'-0.61%'
p9607
tp9608
a(S'380.85'
p9609
S'2.90%'
p9610
tp9611
a(S'370.13'
p9612
S'2.16%'
p9613
tp9614
a(S'362.31'
p9615
S'1.16%'
p9616
tp9617
a(S'358.17'
p9618
S'0.04%'
p9619
tp9620
a(S'358.04'
p9621
S'1.98%'
p9622
tp9623
a(S'351.09'
p9624
S'1.11%'
p9625
tp9626
a(S'347.25'
p9627
S'1.35%'
p9628
tp9629
a(S'342.62'
p9630
S'2.22%'
p9631
tp9632
a(S'335.19'
p9633
S'0.01%'
p9634
tp9635
a(S'335.15'
p9636
S'-2.51%'
p9637
tp9638
a(S'343.79'
p9639
S'1.69%'
p9640
tp9641
a(S'338.08'
p9642
S'2.06%'
p9643
tp9644
a(S'331.27'
p9645
S'0.47%'
p9646
tp9647
a(S'329.73'
p9648
S'0.97%'
p9649
tp9650
a(S'326.55'
p9651
S'2.22%'
p9652
tp9653
a(S'319.45'
p9654
S'0.80%'
p9655
tp9656
a(S'316.9'
p9657
S'2.16%'
p9658
tp9659
a(S'310.19'
p9660
S'3.23%'
p9661
tp9662
a(S'300.47'
p9663
S'3.39%'
p9664
tp9665
a(S'290.63'
p9666
S'5.80%'
p9667
tp9668
a(S'274.69'
p9669
S'4.05%'
p9670
tp9671
a(S'264'
p9672
S'5.81%'
p9673
tp9674
a(S'249.51'
p9675
S'4.52%'
p9676
tp9677
a(S'238.73'
p9678
S'1.14%'
p9679
tp9680
a(S'236.04'
p9681
S'0.75%'
p9682
tp9683
a(S'234.29'
p9684
S'5.72%'
p9685
tp9686
a(S'221.62'
p9687
S'-0.98%'
p9688
tp9689
a(S'223.82'
p9690
S'-1.88%'
p9691
tp9692
a(S'228.1'
p9693
S'-12.59%'
p9694
tp9695
a(S'260.96'
p9696
S'-12.26%'
p9697
tp9698
a(S'297.41'
p9699
S'-0.66%'
p9700
tp9701
a(S'299.4'
p9702
S'-2.14%'
p9703
tp9704
a(S'305.96'
p9705
S'-0.36%'
p9706
tp9707
a(S'307.08'
p9708
S'1.50%'
p9709
tp9710
a(S'302.53'
p9711
S'1.11%'
p9712
tp9713
a(S'299.22'
p9714
S'-5.93%'
p9715
tp9716
a(S'318.09'
p9717
S'-1.29%'
p9718
tp9719
a(S'322.26'
p9720
S'-0.53%'
p9721
tp9722
a(S'323.98'
p9723
S'-0.40%'
p9724
tp9725
a(S'325.28'
p9726
S'-1.48%'
p9727
tp9728
a(S'330.17'
p9729
S'2.18%'
p9730
tp9731
a(S'323.14'
p9732
S'1.97%'
p9733
tp9734
a(S'316.91'
p9735
S'-1.08%'
p9736
tp9737
a(S'320.38'
p9738
S'-1.11%'
p9739
tp9740
a(S'323.99'
p9741
S'0.28%'
p9742
tp9743
a(S'323.1'
p9744
S'1.19%'
p9745
tp9746
a(S'319.29'
p9747
S'0.56%'
p9748
tp9749
a(S'317.5'
p9750
S'0.68%'
p9751
tp9752
a(S'315.36'
p9753
S'1.16%'
p9754
tp9755
a(S'311.75'
p9756
S'1.20%'
p9757
tp9758
a(S'308.06'
p9759
S'1.49%'
p9760
tp9761
a(S'303.55'
p9762
S'1.06%'
p9763
tp9764
a(S'300.36'
p9765
S'0.68%'
p9766
tp9767
a(S'298.32'
p9768
S'1.15%'
p9769
tp9770
a(S'294.93'
p9771
S'1.01%'
p9772
tp9773
a(S'291.98'
p9774
S'0.79%'
p9775
tp9776
a(S'289.7'
p9777
S'0.35%'
p9778
tp9779
a(S'288.69'
p9780
S'0.76%'
p9781
tp9782
a(S'286.51'
p9783
S'0.75%'
p9784
tp9785
a(S'284.38'
p9786
S'1.49%'
p9787
tp9788
a(S'280.22'
p9789
S'1.18%'
p9790
tp9791
a(S'276.95'
p9792
S'2.75%'
p9793
tp9794
a(S'269.53'
p9795
S'0.96%'
p9796
tp9797
a(S'266.96'
p9798
S'-0.43%'
p9799
tp9800
a(S'268.12'
p9801
S'-0.07%'
p9802
tp9803
a(S'268.3'
p9804
S'1.10%'
p9805
tp9806
a(S'265.37'
p9807
S'0.72%'
p9808
tp9809
a(S'263.48'
p9810
S'1.71%'
p9811
tp9812
a(S'259.05'
p9813
S'0.96%'
p9814
tp9815
a(S'256.59'
p9816
S'-1.55%'
p9817
tp9818
a(S'260.64'
p9819
S'-3.13%'
p9820
tp9821
a(S'269.07'
p9822
S'-1.63%'
p9823
tp9824
a(S'273.54'
p9825
S'-0.31%'
p9826
tp9827
a(S'274.38'
p9828
S'-0.80%'
p9829
tp9830
a(S'276.58'
p9831
S'0.69%'
p9832
tp9833
a(S'274.68'
p9834
S'1.08%'
p9835
tp9836
a(S'271.75'
p9837
S'-0.29%'
p9838
tp9839
a(S'272.53'
p9840
S'-0.07%'
p9841
tp9842
a(S'272.72'
p9843
S'0.28%'
p9844
tp9845
a(S'271.96'
p9846
S'-0.20%'
p9847
tp9848
a(S'272.5'
p9849
S'-0.76%'
p9850
tp9851
a(S'274.58'
p9852
S'-1.33%'
p9853
tp9854
a(S'278.27'
p9855
S'0.46%'
p9856
tp9857
a(S'277'
p9858
S'0.42%'
p9859
tp9860
a(S'275.85'
p9861
S'0.29%'
p9862
tp9863
a(S'275.06'
p9864
S'1.42%'
p9865
tp9866
a(S'271.22'
p9867
S'0.70%'
p9868
tp9869
a(S'269.33'
p9870
S'1.25%'
p9871
tp9872
a(S'266'
p9873
S'1.67%'
p9874
tp9875
a(S'261.62'
p9876
S'1.97%'
p9877
tp9878
a(S'256.56'
p9879
S'-0.91%'
p9880
tp9881
a(S'258.92'
p9882
S'-0.35%'
p9883
tp9884
a(S'259.82'
p9885
S'-0.62%'
p9886
tp9887
a(S'261.45'
p9888
S'1.76%'
p9889
tp9890
a(S'256.92'
p9891
S'1.42%'
p9892
tp9893
a(S'253.32'
p9894
S'0.95%'
p9895
tp9896
a(S'250.94'
p9897
S'1.39%'
p9898
tp9899
a(S'247.49'
p9900
S'3.02%'
p9901
tp9902
a(S'240.24'
p9903
S'1.66%'
p9904
tp9905
a(S'236.31'
p9906
S'1.92%'
p9907
tp9908
a(S'231.85'
p9909
S'1.03%'
p9910
tp9911
a(S'229.48'
p9912
S'1.37%'
p9913
tp9914
a(S'226.38'
p9915
S'0.60%'
p9916
tp9917
a(S'225.04'
p9918
S'-1.55%'
p9919
tp9920
a(S'228.59'
p9921
S'-0.33%'
p9922
tp9923
a(S'229.35'
p9924
S'0.23%'
p9925
tp9926
a(S'228.82'
p9927
S'1.21%'
p9928
tp9929
a(S'226.08'
p9930
S'-0.02%'
p9931
tp9932
a(S'226.13'
p9933
S'-3.15%'
p9934
tp9935
a(S'233.48'
p9936
S'1.12%'
p9937
tp9938
a(S'230.9'
p9939
S'0.32%'
p9940
tp9941
a(S'230.17'
p9942
S'0.71%'
p9943
tp9944
a(S'228.55'
p9945
S'1.11%'
p9946
tp9947
a(S'226.04'
p9948
S'0.74%'
p9949
tp9950
a(S'224.38'
p9951
S'1.50%'
p9952
tp9953
a(S'221.07'
p9954
S'1.08%'
p9955
tp9956
a(S'218.7'
p9957
S'0.13%'
p9958
tp9959
a(S'218.41'
p9960
S'0.69%'
p9961
tp9962
a(S'216.92'
p9963
S'1.22%'
p9964
tp9965
a(S'214.31'
p9966
S'1.42%'
p9967
tp9968
a(S'211.31'
p9969
S'2.12%'
p9970
tp9971
a(S'206.93'
p9972
S'2.68%'
p9973
tp9974
a(S'201.52'
p9975
S'0.44%'
p9976
tp9977
a(S'200.64'
p9978
S'-0.47%'
p9979
tp9980
a(S'201.59'
p9981
S'1.09%'
p9982
tp9983
a(S'199.41'
p9984
S'2.02%'
p9985
tp9986
a(S'195.47'
p9987
S'1.69%'
p9988
tp9989
a(S'192.23'
p9990
S'1.46%'
p9991
tp9992
a(S'189.47'
p9993
S'1.97%'
p9994
tp9995
a(S'185.81'
p9996
S'1.94%'
p9997
tp9998
a(S'182.27'
p9999
S'3.57%'
p10000
tp10001
a(S'175.99'
p10002
S'3.46%'
p10003
tp10004
a(S'170.1'
p10005
S'3.37%'
p10006
tp10007
a(S'164.55'
p10008
S'2.59%'
p10009
tp10010
a(S'160.4'
p10011
S'0.90%'
p10012
tp10013
a(S'158.97'
p10014
S'1.30%'
p10015
tp10016
a(S'156.93'
p10017
S'0.70%'
p10018
tp10019
a(S'155.84'
p10020
S'1.39%'
p10021
tp10022
a(S'153.7'
p10023
S'0.23%'
p10024
tp10025
a(S'153.35'
p10026
S'1.09%'
p10027
tp10028
a(S'151.69'
p10029
S'0.81%'
p10030
tp10031
a(S'150.47'
p10032
S'1.89%'
p10033
tp10034
a(S'147.68'
p10035
S'2.14%'
p10036
tp10037
a(S'144.59'
p10038
S'1.04%'
p10039
tp10040
a(S'143.1'
p10041
S'1.22%'
p10042
tp10043
a(S'141.37'
p10044
S'2.27%'
p10045
tp10046
a(S'138.23'
p10047
S'0.35%'
p10048
tp10049
a(S'137.75'
p10050
S'2.06%'
p10051
tp10052
a(S'134.97'
p10053
S'-4.68%'
p10054
tp10055
a(S'141.59'
p10056
S'-3.23%'
p10057
tp10058
a(S'146.31'
p10059
S'-4.64%'
p10060
tp10061
a(S'153.43'
p10062
S'0.52%'
p10063
tp10064
a(S'152.64'
p10065
S'-0.37%'
p10066
tp10067
a(S'153.21'
p10068
S'0.65%'
p10069
tp10070
a(S'152.22'
p10071
S'1.27%'
p10072
tp10073
a(S'150.31'
p10074
S'1.42%'
p10075
tp10076
a(S'148.2'
p10077
S'1.63%'
p10078
tp10079
a(S'145.82'
p10080
S'0.84%'
p10081
tp10082
a(S'144.6'
p10083
S'1.01%'
p10084
tp10085
a(S'143.16'
p10086
S'-0.82%'
p10087
tp10088
a(S'144.34'
p10089
S'0.46%'
p10090
tp10091
a(S'143.68'
p10092
S'1.03%'
p10093
tp10094
a(S'142.21'
p10095
S'1.75%'
p10096
tp10097
a(S'139.77'
p10098
S'2.11%'
p10099
tp10100
a(S'136.88'
p10101
S'2.09%'
p10102
tp10103
a(S'134.08'
p10104
S'1.68%'
p10105
tp10106
a(S'131.86'
p10107
S'1.02%'
p10108
tp10109
a(S'130.53'
p10110
S'0.94%'
p10111
tp10112
a(S'129.31'
p10113
S'1.33%'
p10114
tp10115
a(S'127.61'
p10116
S'1.03%'
p10117
tp10118
a(S'126.31'
p10119
S'0.85%'
p10120
tp10121
a(S'125.25'
p10122
S'1.35%'
p10123
tp10124
a(S'123.58'
p10125
S'1.44%'
p10126
tp10127
a(S'121.82'
p10128
S'1.12%'
p10129
tp10130
a(S'120.47'
p10131
S'1.31%'
p10132
tp10133
a(S'118.91'
p10134
S'1.36%'
p10135
tp10136
a(S'117.32'
p10137
S'1.45%'
p10138
tp10139
a(S'115.64'
p10140
S'1.59%'
p10141
tp10142
a(S'113.83'
p10143
S'1.34%'
p10144
tp10145
a(S'112.33'
p10146
S'1.50%'
p10147
tp10148
a(S'110.67'
p10149
S'1.18%'
p10150
tp10151
a(S'109.38'
p10152
S'2.07%'
p10153
tp10154
a(S'107.16'
p10155
S'1.39%'
p10156
tp10157
a(S'105.69'
p10158
S'2.31%'
p10159
tp10160
a(S'103.3'
p10161
S'1.29%'
p10162
tp10163
a(S'101.98'
p10164
S'1.12%'
p10165
tp10166
a(S'100.85'
p10167
S'0.77%'
p10168
tp10169
a(S'100.08'
p10170
S'0.86%'
p10171
tp10172
a(S'99.23'
p10173
S'1.90%'
p10174
tp10175
a(S'97.38'
p10176
S'1.65%'
p10177
tp10178
a(S'95.8'
p10179
S'2.28%'
p10180
tp10181
a(S'93.66'
p10182
S'1.32%'
p10183
tp10184
a(S'92.44'
p10185
S'1.18%'
p10186
tp10187
a(S'91.36'
p10188
S'-0.62%'
p10189
tp10190
a(S'91.93'
p10191
S'-1.92%'
p10192
tp10193
a(S'93.73'
p10194
S'-0.17%'
p10195
tp10196
a(S'93.89'
p10197
S'-1.36%'
p10198
tp10199
a(S'95.18'
p10200
S'-1.19%'
p10201
tp10202
a(S'96.33'
p10203
S'-0.04%'
p10204
tp10205
a(S'96.37'
p10206
S'0.14%'
p10207
tp10208
a(S'96.24'
p10209
S'0.21%'
p10210
tp10211
a(S'96.04'
p10212
S'-1.02%'
p10213
tp10214
a(S'97.03'
p10215
S'-2.52%'
p10216
tp10217
a(S'99.54'
p10218
S'-0.97%'
p10219
tp10220
a(S'100.51'
p10221
S'0.15%'
p10222
tp10223
a(S'100.36'
p10224
S'0.36%'
p10225
tp10226
a(S'100'
p10227
S'0.00%'
p10228
tp10229
as.