(lp0
S'1ST CENTURY BANKSHARES INC'
p1
aS'1ST CONSTITUTION BANCORP'
p2
aS'AMERISERV FINANCIAL INC'
p3
aS'AMES NATL CORP'
p4
aS'ANNAPOLIS BANCORP INC'
p5
aS'B B & T CORP'
p6
aS'B B & T CORP'
p7
aS'BANCO COMERCIAL PORTUGUES SA'
p8
aS'BANCO LATINOAMERICANO DE CO EX'
p9
aS'BANCO O HIGGINS'
p10
aS'BANCO SANTANDER BRASIL S A'
p11
aS'BANCO SANTANDER PR SAN JUAN'
p12
aS'BANK OF NOVA SCOTIA'
p13
aS'BANKAMERICA CORP NEW'
p14
aS'BANKBOSTON CORP'
p15
aS'BANKERS TRUST CORP'
p16
aS'BAY NATIONAL CORP'
p17
aS'BBCN BANCORP INC'
p18
aS'BEACH FIRST NATL BANCSHARES INC'
p19
aS'BEVERLY NATIONAL CORP'
p20
aS'BRIDGE BANCORP INC'
p21
aS'BRIDGE BANK NATIONAL ASSOC'
p22
aS'BRIDGE STREET FINANCIAL INC'
p23
aS'C C B FINANCIAL CORP'
p24
aS'C N B BANCSHARES INC'
p25
aS'C N B C BANCORP'
p26
a.