(lp0
S'20TH CENTURY INDUSTRIES'
p1
aS'A X A FINANCIAL INC'
p2
aS'ACAP CORP'
p3
aS'ACCELERATION CORP'
p4
aS'AEGON N V'
p5
aS'AETNA INC'
p6
aS'AETNA LIFE & CASUALTY CO'
p7
aS'ALFA CORP'
p8
aS'ALLIANZ AKTIENGESELLSCHAFT'
p9
aS'AMBASE CORP'
p10
aS'AMERICAN BANKERS INS GROUP INC'
p11
aS'AMERICAN BANKERS LIFE ASSURN'
p12
aS'AMERICAN EQUITY INVT LIFE HLDG'
p13
aS'AMERICAN FOUNDATION LIFE INS CO'
p14
aS'AMERICAN FOUNDERS LIFE INS CO'
p15
aS'AMERICAN HERITAGE LIFE INVT'
p16
aS'AMERICAN INCOME HOLDING INC'
p17
aS'AMERICAN INCOME LIFE INS CO'
p18
aS'AMERICAN INVS LIFE INS CO'
p19
aS'AMERICAN NATIONAL INS CO'
p20
aS'AMERICAN STATES LIFE INS CO'
p21
aS'AMERICAN TRUSTEE INC'
p22
aS'AMERUS GROUP CO'
p23
aS'AMERUS LIFE HOLDINGS INC'
p24
aS'AMMEST GROUP INC'
p25
aS'AMVESTORS FINANCIAL CORP'
p26
aS'AMVESTORS FINANCIAL CORP'
p27
a.